(dp1
S'circuitri'
p2
(iDictEntry
dict_entry
p3
(dp4
S'posting_pointer'
p5
L73494L
sS'doc_freq'
p6
I1
sbsS'monoaklyl'
p7
(iDictEntry
dict_entry
p8
(dp9
g5
L298523L
sg6
I1
sbsS'foul'
p10
(iDictEntry
dict_entry
p11
(dp12
g5
L193588L
sg6
I11
sbsS'interchang'
p13
(iDictEntry
dict_entry
p14
(dp15
g5
L236985L
sg6
I1
sbsS'sleev'
p16
(iDictEntry
dict_entry
p17
(dp18
g5
L437515L
sg6
I1
sbsS'powderi'
p19
(iDictEntry
dict_entry
p20
(dp21
g5
L353771L
sg6
I1
sbsS'whose'
p22
(iDictEntry
dict_entry
p23
(dp24
g5
L548652L
sg6
I2
sbsS'accur'
p25
(iDictEntry
dict_entry
p26
(dp27
g5
L4806L
sg6
I2
sbsS'antimicrobi'
p28
(iDictEntry
dict_entry
p29
(dp30
g5
L24211L
sg6
I1
sbsS'selen'
p31
(iDictEntry
dict_entry
p32
(dp33
g5
L420082L
sg6
I1
sbsS'halogen'
p34
(iDictEntry
dict_entry
p35
(dp36
g5
L208508L
sg6
I2
sbsS'under'
p37
(iDictEntry
dict_entry
p38
(dp39
g5
L512313L
sg6
I1
sbsS'sway'
p40
(iDictEntry
dict_entry
p41
(dp42
g5
L470136L
sg6
I1
sbsS'clockwis'
p43
(iDictEntry
dict_entry
p44
(dp45
g5
L76317L
sg6
I1
sbsS'digit'
p46
(iDictEntry
dict_entry
p47
(dp48
g5
L127328L
sg6
I9
sbsS'everi'
p49
(iDictEntry
dict_entry
p50
(dp51
g5
L163723L
sg6
I1
sbsS'downstream'
p52
(iDictEntry
dict_entry
p53
(dp54
g5
L140367L
sg6
I4
sbsS'blanket'
p55
(iDictEntry
dict_entry
p56
(dp57
g5
L51963L
sg6
I2
sbsS'rise'
p58
(iDictEntry
dict_entry
p59
(dp60
g5
L409741L
sg6
I2
sbsS'lumin'
p61
(iDictEntry
dict_entry
p62
(dp63
g5
L262569L
sg6
I1
sbsS'calcin'
p64
(iDictEntry
dict_entry
p65
(dp66
g5
L60088L
sg6
I1
sbsS'jack'
p67
(iDictEntry
dict_entry
p68
(dp69
g5
L244286L
sg6
I1
sbsS'upstream'
p70
(iDictEntry
dict_entry
p71
(dp72
g5
L515276L
sg6
I3
sbsS'affect'
p73
(iDictEntry
dict_entry
p74
(dp75
g5
L10885L
sg6
I1
sbsS'quantit'
p76
(iDictEntry
dict_entry
p77
(dp78
g5
L383493L
sg6
I2
sbsS'multipurpos'
p79
(iDictEntry
dict_entry
p80
(dp81
g5
L301651L
sg6
I1
sbsS'vector'
p82
(iDictEntry
dict_entry
p83
(dp84
g5
L524824L
sg6
I2
sbsS'verif'
p85
(iDictEntry
dict_entry
p86
(dp87
g5
L525334L
sg6
I1
sbsS'influent'
p88
(iDictEntry
dict_entry
p89
(dp90
g5
L231439L
sg6
I1
sbsS'pesticid'
p91
(iDictEntry
dict_entry
p92
(dp93
g5
L339618L
sg6
I2
sbsS'enjoy'
p94
(iDictEntry
dict_entry
p95
(dp96
g5
L158312L
sg6
I1
sbsS'goetextil'
p97
(iDictEntry
dict_entry
p98
(dp99
g5
L205569L
sg6
I1
sbsS'capsul'
p100
(iDictEntry
dict_entry
p101
(dp102
g5
L61696L
sg6
I1
sbsS'speci'
p103
(iDictEntry
dict_entry
p104
(dp105
g5
L449587L
sg6
I6
sbsS'10a'
p106
(iDictEntry
dict_entry
p107
(dp108
g5
L463L
sg6
I1
sbsS'direct'
p109
(iDictEntry
dict_entry
p110
(dp111
g5
L128502L
sg6
I25
sbsS'limeston'
p112
(iDictEntry
dict_entry
p113
(dp114
g5
L255107L
sg6
I2
sbsS'consequ'
p115
(iDictEntry
dict_entry
p116
(dp117
g5
L96497L
sg6
I2
sbsS'second'
p118
(iDictEntry
dict_entry
p119
(dp120
g5
L416649L
sg6
I26
sbsS'glassi'
p121
(iDictEntry
dict_entry
p122
(dp123
g5
L205401L
sg6
I1
sbsS'manur'
p124
(iDictEntry
dict_entry
p125
(dp126
g5
L267482L
sg6
I3
sbsS'aggreg'
p127
(iDictEntry
dict_entry
p128
(dp129
g5
L11637L
sg6
I3
sbsS'feedstream'
p130
(iDictEntry
dict_entry
p131
(dp132
g5
L172847L
sg6
I1
sbsS'manner'
p133
(iDictEntry
dict_entry
p134
(dp135
g5
L266985L
sg6
I2
sbsS'tether'
p136
(iDictEntry
dict_entry
p137
(dp138
g5
L479672L
sg6
I1
sbsS'thermophil'
p139
(iDictEntry
dict_entry
p140
(dp141
g5
L492324L
sg6
I1
sbsS'illumin'
p142
(iDictEntry
dict_entry
p143
(dp144
g5
L219950L
sg6
I1
sbsS'even'
p145
(iDictEntry
dict_entry
p146
(dp147
g5
L163352L
sg6
I4
sbsS'chlorat'
p148
(iDictEntry
dict_entry
p149
(dp150
g5
L72647L
sg6
I1
sbsS'neg'
p151
(iDictEntry
dict_entry
p152
(dp153
g5
L304091L
sg6
I2
sbsS'calcul'
p154
(iDictEntry
dict_entry
p155
(dp156
g5
L60356L
sg6
I1
sbsS'juxtapos'
p157
(iDictEntry
dict_entry
p158
(dp159
g5
L245226L
sg6
I2
sbsS'conduct'
p160
(iDictEntry
dict_entry
p161
(dp162
g5
L94108L
sg6
I4
sbsS'new'
p163
(iDictEntry
dict_entry
p164
(dp165
g5
Nsg6
NsbsS'net'
p166
(iDictEntry
dict_entry
p167
(dp168
g5
L304423L
sg6
I1
sbsS'metadata'
p169
(iDictEntry
dict_entry
p170
(dp171
g5
L280933L
sg6
I2
sbsS'polyethoxi'
p172
(iDictEntry
dict_entry
p173
(dp174
g5
L346920L
sg6
I1
sbsS'elimin'
p175
(iDictEntry
dict_entry
p176
(dp177
g5
L152084L
sg6
I4
sbsS'activt'
p178
(iDictEntry
dict_entry
p179
(dp180
g5
L7043L
sg6
I1
sbsS'hydrolysi'
p181
(iDictEntry
dict_entry
p182
(dp183
g5
L218247L
sg6
I3
sbsS'108'
p184
(iDictEntry
dict_entry
p185
(dp186
g5
L401L
sg6
I1
sbsS'NOx'
p187
(iDictEntry
dict_entry
p188
(dp189
g5
L308511L
sg6
I1
sbsS'ethanol'
p190
(iDictEntry
dict_entry
p191
(dp192
g5
L162947L
sg6
I1
sbsS'bromin'
p193
(iDictEntry
dict_entry
p194
(dp195
g5
L56663L
sg6
I1
sbsS'path'
p196
(iDictEntry
dict_entry
p197
(dp198
g5
L335548L
sg6
I9
sbsS'100'
p199
(iDictEntry
dict_entry
p200
(dp201
g5
L114L
sg6
I3
sbsS'106'
p202
(iDictEntry
dict_entry
p203
(dp204
g5
L339L
sg6
I1
sbsS'104'
p205
(iDictEntry
dict_entry
p206
(dp207
g5
L277L
sg6
I1
sbsS'dry'
p208
(iDictEntry
dict_entry
p209
(dp210
g5
L143284L
sg6
I5
sbsS'deterior'
p211
(iDictEntry
dict_entry
p212
(dp213
g5
L121606L
sg6
I2
sbsS'organoclay'
p214
(iDictEntry
dict_entry
p215
(dp216
g5
L322153L
sg6
I1
sbsS'hydrat'
p217
(iDictEntry
dict_entry
p218
(dp219
g5
L217653L
sg6
I1
sbsS'dri'
p220
(iDictEntry
dict_entry
p221
(dp222
g5
L141673L
sg6
I5
sbsS'defocu'
p223
(iDictEntry
dict_entry
p224
(dp225
g5
L115491L
sg6
I1
sbsS'smoke'
p226
(iDictEntry
dict_entry
p227
(dp228
g5
L443395L
sg6
I1
sbsS'NOT'
p229
(iDictEntry
dict_entry
p230
(dp231
g5
L307662L
sg6
I8
sbsS'studi'
p232
(iDictEntry
dict_entry
p233
(dp234
g5
L459470L
sg6
I1
sbsS'fourier'
p235
(iDictEntry
dict_entry
p236
(dp237
g5
L194428L
sg6
I1
sbsS'portabl'
p238
(iDictEntry
dict_entry
p239
(dp240
g5
L349444L
sg6
I10
sbsS'nineti'
p241
(iDictEntry
dict_entry
p242
(dp243
g5
L305427L
sg6
I1
sbsS'plenum'
p244
(iDictEntry
dict_entry
p245
(dp246
g5
L344439L
sg6
I2
sbsS'strap'
p247
(iDictEntry
dict_entry
p248
(dp249
g5
L457270L
sg6
I1
sbsS'brought'
p250
(iDictEntry
dict_entry
p251
(dp252
g5
L56720L
sg6
I1
sbsS'invas'
p253
(iDictEntry
dict_entry
p254
(dp255
g5
L239267L
sg6
I3
sbsS'attitud'
p256
(iDictEntry
dict_entry
p257
(dp258
g5
L38595L
sg6
I1
sbsS'gaseou'
p259
(iDictEntry
dict_entry
p260
(dp261
g5
L200522L
sg6
I4
sbsS'ultrafiltr'
p262
(iDictEntry
dict_entry
p263
(dp264
g5
L511910L
sg6
I2
sbsS'nitrat'
p265
(iDictEntry
dict_entry
p266
(dp267
g5
L305484L
sg6
I5
sbsS'mammogram'
p268
(iDictEntry
dict_entry
p269
(dp270
g5
L266376L
sg6
I1
sbsS'unit'
p271
(iDictEntry
dict_entry
p272
(dp273
g5
L513132L
sg6
I16
sbsS'highli'
p274
(iDictEntry
dict_entry
p275
(dp276
g5
L213838L
sg6
I6
sbsS'describ'
p277
(iDictEntry
dict_entry
p278
(dp279
g5
L118886L
sg6
I8
sbsS'would'
p280
(iDictEntry
dict_entry
p281
(dp282
g5
L551699L
sg6
I2
sbsS'call'
p283
(iDictEntry
dict_entry
p284
(dp285
g5
L60532L
sg6
I1
sbsS'redox'
p286
(iDictEntry
dict_entry
p287
(dp288
g5
L393121L
sg6
I1
sbsS'decentr'
p289
(iDictEntry
dict_entry
p290
(dp291
g5
L113972L
sg6
I1
sbsS'type'
p292
(iDictEntry
dict_entry
p293
(dp294
g5
L511083L
sg6
I9
sbsS'correspondingli'
p295
(iDictEntry
dict_entry
p296
(dp297
g5
L107575L
sg6
I1
sbsS'relat'
p298
(iDictEntry
dict_entry
p299
(dp300
g5
L397114L
sg6
I23
sbsS'glass'
p301
(iDictEntry
dict_entry
p302
(dp303
g5
L205344L
sg6
I1
sbsS'exce'
p304
(iDictEntry
dict_entry
p305
(dp306
g5
L164380L
sg6
I1
sbsS'protozoan'
p307
(iDictEntry
dict_entry
p308
(dp309
g5
L373620L
sg6
I1
sbsS'hole'
p310
(iDictEntry
dict_entry
p311
(dp312
g5
L214452L
sg6
I3
sbsS'hold'
p313
(iDictEntry
dict_entry
p314
(dp315
g5
L214269L
sg6
I2
sbsS'must'
p316
(iDictEntry
dict_entry
p317
(dp318
g5
L302015L
sg6
I1
sbsS'saccharolyticu'
p319
(iDictEntry
dict_entry
p320
(dp321
g5
L411595L
sg6
I1
sbsS'join'
p322
(iDictEntry
dict_entry
p323
(dp324
g5
L244672L
sg6
I3
sbsS'room'
p325
(iDictEntry
dict_entry
p326
(dp327
g5
L410295L
sg6
I1
sbsS'work'
p328
(iDictEntry
dict_entry
p329
(dp330
g5
L551248L
sg6
I6
sbsS'roof'
p331
(iDictEntry
dict_entry
p332
(dp333
g5
L410094L
sg6
I3
sbsS'unitari'
p334
(iDictEntry
dict_entry
p335
(dp336
g5
L513991L
sg6
I1
sbsS'miscibl'
p337
(iDictEntry
dict_entry
p338
(dp339
g5
L293638L
sg6
I1
sbsS'ultrason'
p340
(iDictEntry
dict_entry
p341
(dp342
g5
L512093L
sg6
I1
sbsS'climat'
p343
(iDictEntry
dict_entry
p344
(dp345
g5
L76203L
sg6
I1
sbsS'give'
p346
(iDictEntry
dict_entry
p347
(dp348
g5
L204969L
sg6
I3
sbsS'infus'
p349
(iDictEntry
dict_entry
p350
(dp351
g5
L231817L
sg6
I1
sbsS'swivel'
p352
(iDictEntry
dict_entry
p353
(dp354
g5
L470353L
sg6
I1
sbsS'indic'
p355
(iDictEntry
dict_entry
p356
(dp357
g5
L229782L
sg6
I4
sbsS'filtrat'
p358
(iDictEntry
dict_entry
p359
(dp360
g5
L176800L
sg6
I16
sbsS'aerotoler'
p361
(iDictEntry
dict_entry
p362
(dp363
g5
L10828L
sg6
I1
sbsS'innocu'
p364
(iDictEntry
dict_entry
p365
(dp366
g5
L233686L
sg6
I2
sbsS'CSO'
p367
(iDictEntry
dict_entry
p368
(dp369
g5
L110008L
sg6
I1
sbsS'attract'
p370
(iDictEntry
dict_entry
p371
(dp372
g5
L38652L
sg6
I2
sbsS'recov'
p373
(iDictEntry
dict_entry
p374
(dp375
g5
L392108L
sg6
I4
sbsS'end'
p376
(iDictEntry
dict_entry
p377
(dp378
g5
L155779L
sg6
I13
sbsS'auger'
p379
(iDictEntry
dict_entry
p380
(dp381
g5
L38974L
sg6
I2
sbsS'travel'
p382
(iDictEntry
dict_entry
p383
(dp384
g5
L500506L
sg6
I1
sbsS'photopheresi'
p385
(iDictEntry
dict_entry
p386
(dp387
g5
L340994L
sg6
I1
sbsS'hot'
p388
(iDictEntry
dict_entry
p389
(dp390
g5
L215700L
sg6
I2
sbsS'recoveri'
p391
(iDictEntry
dict_entry
p392
(dp393
g5
L392319L
sg6
I4
sbsS'hop'
p394
(iDictEntry
dict_entry
p395
(dp396
g5
L215106L
sg6
I1
sbsS'toxic'
p397
(iDictEntry
dict_entry
p398
(dp399
g5
L498933L
sg6
I4
sbsS'verifi'
p400
(iDictEntry
dict_entry
p401
(dp402
g5
L525391L
sg6
I2
sbsS'deaerat'
p403
(iDictEntry
dict_entry
p404
(dp405
g5
L113839L
sg6
I1
sbsS'perspect'
p406
(iDictEntry
dict_entry
p407
(dp408
g5
L339351L
sg6
I2
sbsS'confid'
p409
(iDictEntry
dict_entry
p410
(dp411
g5
L94434L
sg6
I1
sbsS'recogn'
p412
(iDictEntry
dict_entry
p413
(dp414
g5
L390685L
sg6
I3
sbsS'after'
p415
(iDictEntry
dict_entry
p416
(dp417
g5
L10942L
sg6
I1
sbsS'substanc'
p418
(iDictEntry
dict_entry
p419
(dp420
g5
L460913L
sg6
I8
sbsS'mesh'
p421
(iDictEntry
dict_entry
p422
(dp423
g5
L280539L
sg6
I4
sbsS'geolog'
p424
(iDictEntry
dict_entry
p425
(dp426
g5
L204613L
sg6
I1
sbsS'passageway'
p427
(iDictEntry
dict_entry
p428
(dp429
g5
L335333L
sg6
I1
sbsS'airless'
p430
(iDictEntry
dict_entry
p431
(dp432
g5
L14264L
sg6
I1
sbsS'parallel'
p433
(iDictEntry
dict_entry
p434
(dp435
g5
L329649L
sg6
I3
sbsS'All'
p436
(iDictEntry
dict_entry
p437
(dp438
g5
L15243L
sg6
I1
sbsS'third'
p439
(iDictEntry
dict_entry
p440
(dp441
g5
L494257L
sg6
I4
sbsS'retort'
p442
(iDictEntry
dict_entry
p443
(dp444
g5
L407871L
sg6
I1
sbsS'fungi'
p445
(iDictEntry
dict_entry
p446
(dp447
g5
L197404L
sg6
I1
sbsS'detent'
p448
(iDictEntry
dict_entry
p449
(dp450
g5
L121451L
sg6
I2
sbsS'receiv'
p451
(iDictEntry
dict_entry
p452
(dp453
g5
L388904L
sg6
I18
sbsS'maintain'
p454
(iDictEntry
dict_entry
p455
(dp456
g5
L264530L
sg6
I14
sbsS'environ'
p457
(iDictEntry
dict_entry
p458
(dp459
g5
L159861L
sg6
I7
sbsS'incorpor'
p460
(iDictEntry
dict_entry
p461
(dp462
g5
L229115L
sg6
I4
sbsS'enter'
p463
(iDictEntry
dict_entry
p464
(dp465
g5
L158850L
sg6
I7
sbsS'fan'
p466
(iDictEntry
dict_entry
p467
(dp468
g5
L170734L
sg6
I1
sbsS'vapor'
p469
(iDictEntry
dict_entry
p470
(dp471
g5
L523680L
sg6
I5
sbsS'order'
p472
(iDictEntry
dict_entry
p473
(dp474
g5
L319759L
sg6
I5
sbsS'origin'
p475
(iDictEntry
dict_entry
p476
(dp477
g5
L322707L
sg6
I1
sbsS'composit'
p478
(iDictEntry
dict_entry
p479
(dp480
g5
L85529L
sg6
I25
sbsS'deform'
p481
(iDictEntry
dict_entry
p482
(dp483
g5
L115550L
sg6
I1
sbsS'over'
p484
(iDictEntry
dict_entry
p485
(dp486
g5
L326064L
sg6
I1
sbsS'jpeg'
p487
(iDictEntry
dict_entry
p488
(dp489
g5
L245002L
sg6
I1
sbsS'snugli'
p490
(iDictEntry
dict_entry
p491
(dp492
g5
L443506L
sg6
I1
sbsS'counterclockwis'
p493
(iDictEntry
dict_entry
p494
(dp495
g5
L107972L
sg6
I1
sbsS'incid'
p496
(iDictEntry
dict_entry
p497
(dp498
g5
L223758L
sg6
I1
sbsS'keyboard'
p499
(iDictEntry
dict_entry
p500
(dp501
g5
L245674L
sg6
I2
sbsS'flexibl'
p502
(iDictEntry
dict_entry
p503
(dp504
g5
L183098L
sg6
I1
sbsS'vari'
p505
(iDictEntry
dict_entry
p506
(dp507
g5
L524018L
sg6
I4
sbsS'digest'
p508
(iDictEntry
dict_entry
p509
(dp510
g5
L127047L
sg6
I4
sbsS'gentl'
p511
(iDictEntry
dict_entry
p512
(dp513
g5
L204556L
sg6
I1
sbsS'hydrolys'
p514
(iDictEntry
dict_entry
p515
(dp516
g5
L218190L
sg6
I1
sbsS'fit'
p517
(iDictEntry
dict_entry
p518
(dp519
g5
L182155L
sg6
I3
sbsS'fix'
p520
(iDictEntry
dict_entry
p521
(dp522
g5
L182364L
sg6
I4
sbsS'biodegrad'
p523
(iDictEntry
dict_entry
p524
(dp525
g5
L48606L
sg6
I2
sbsS'frusto'
p526
(iDictEntry
dict_entry
p527
(dp528
g5
L196607L
sg6
I1
sbsS'hidden'
p529
(iDictEntry
dict_entry
p530
(dp531
g5
L212602L
sg6
I1
sbsS'shear'
p532
(iDictEntry
dict_entry
p533
(dp534
g5
L431844L
sg6
I2
sbsS'then'
p535
(iDictEntry
dict_entry
p536
(dp537
g5
L488470L
sg6
I1
sbsS'anim'
p538
(iDictEntry
dict_entry
p539
(dp540
g5
L22087L
sg6
I9
sbsS'therapi'
p541
(iDictEntry
dict_entry
p542
(dp543
g5
L488638L
sg6
I2
sbsS'enrich'
p544
(iDictEntry
dict_entry
p545
(dp546
g5
L158428L
sg6
I4
sbsS'safe'
p547
(iDictEntry
dict_entry
p548
(dp549
g5
L411711L
sg6
I1
sbsS'break'
p550
(iDictEntry
dict_entry
p551
(dp552
g5
L55895L
sg6
I2
sbsS'they'
p553
(iDictEntry
dict_entry
p554
(dp555
g5
L492811L
sg6
I1
sbsS'surgic'
p556
(iDictEntry
dict_entry
p557
(dp558
g5
L468942L
sg6
I2
sbsS'tthm'
p559
(iDictEntry
dict_entry
p560
(dp561
g5
L508857L
sg6
I1
sbsS'hydrolyz'
p562
(iDictEntry
dict_entry
p563
(dp564
g5
L218405L
sg6
I2
sbsS'silver'
p565
(iDictEntry
dict_entry
p566
(dp567
g5
L434683L
sg6
I2
sbsS'bank'
p568
(iDictEntry
dict_entry
p569
(dp570
g5
L43591L
sg6
I1
sbsS'anion'
p571
(iDictEntry
dict_entry
p572
(dp573
g5
L22567L
sg6
I1
sbsS'oxygen'
p574
(iDictEntry
dict_entry
p575
(dp576
g5
L327370L
sg6
I14
sbsS'accommod'
p577
(iDictEntry
dict_entry
p578
(dp579
g5
L3518L
sg6
I4
sbsS'each'
p580
(iDictEntry
dict_entry
p581
(dp582
g5
L144088L
sg6
I1
sbsS'electrostat'
p583
(iDictEntry
dict_entry
p584
(dp585
g5
L151356L
sg6
I3
sbsS'side'
p586
(iDictEntry
dict_entry
p587
(dp588
g5
L432667L
sg6
I16
sbsS'bond'
p589
(iDictEntry
dict_entry
p590
(dp591
g5
L54261L
sg6
I5
sbsS'macromolecul'
p592
(iDictEntry
dict_entry
p593
(dp594
g5
L263168L
sg6
I1
sbsS'resum'
p595
(iDictEntry
dict_entry
p596
(dp597
g5
L407371L
sg6
I1
sbsS'magneto'
p598
(iDictEntry
dict_entry
p599
(dp600
g5
L264152L
sg6
I1
sbsS'combust'
p601
(iDictEntry
dict_entry
p602
(dp603
g5
L82384L
sg6
I4
sbsS'reload'
p604
(iDictEntry
dict_entry
p605
(dp606
g5
L398949L
sg6
I1
sbsS'receptacl'
p607
(iDictEntry
dict_entry
p608
(dp609
g5
L389864L
sg6
I3
sbsS'extract'
p610
(iDictEntry
dict_entry
p611
(dp612
g5
L167997L
sg6
I21
sbsS'network'
p613
(iDictEntry
dict_entry
p614
(dp615
g5
L304480L
sg6
I3
sbsS'sphagnum'
p616
(iDictEntry
dict_entry
p617
(dp618
g5
L450905L
sg6
I1
sbsS'TKN'
p619
(iDictEntry
dict_entry
p620
(dp621
g5
L497325L
sg6
I1
sbsS'content'
p622
(iDictEntry
dict_entry
p623
(dp624
g5
L102653L
sg6
I6
sbsS'adapt'
p625
(iDictEntry
dict_entry
p626
(dp627
g5
L7313L
sg6
I7
sbsS'got'
p628
(iDictEntry
dict_entry
p629
(dp630
g5
L205626L
sg6
I1
sbsS'washer'
p631
(iDictEntry
dict_entry
p632
(dp633
g5
L531053L
sg6
I1
sbsS'onlin'
p634
(iDictEntry
dict_entry
p635
(dp636
g5
L316729L
sg6
I1
sbsS'barrier'
p637
(iDictEntry
dict_entry
p638
(dp639
g5
L43704L
sg6
I2
sbsS'free'
p640
(iDictEntry
dict_entry
p641
(dp642
g5
L195155L
sg6
I6
sbsS'ineffici'
p643
(iDictEntry
dict_entry
p644
(dp645
g5
L231057L
sg6
I2
sbsS'methanogen'
p646
(iDictEntry
dict_entry
p647
(dp648
g5
L281939L
sg6
I1
sbsS'rain'
p649
(iDictEntry
dict_entry
p650
(dp651
g5
L385163L
sg6
I1
sbsS'243'
p652
(iDictEntry
dict_entry
p653
(dp654
g5
L1513L
sg6
I1
sbsS'brushless'
p655
(iDictEntry
dict_entry
p656
(dp657
g5
L56832L
sg6
I1
sbsS'kit'
p658
(iDictEntry
dict_entry
p659
(dp660
g5
L246270L
sg6
I1
sbsS'untreat'
p661
(iDictEntry
dict_entry
p662
(dp663
g5
L514296L
sg6
I1
sbsS'angl'
p664
(iDictEntry
dict_entry
p665
(dp666
g5
L22030L
sg6
I1
sbsS'silicon'
p667
(iDictEntry
dict_entry
p668
(dp669
g5
L434500L
sg6
I2
sbsS'renew'
p670
(iDictEntry
dict_entry
p671
(dp672
g5
L402411L
sg6
I1
sbsS'rais'
p673
(iDictEntry
dict_entry
p674
(dp675
g5
L385279L
sg6
I3
sbsS'soda'
p676
(iDictEntry
dict_entry
p677
(dp678
g5
L443800L
sg6
I1
sbsS'onto'
p679
(iDictEntry
dict_entry
p680
(dp681
g5
L316786L
sg6
I6
sbsS'fatti'
p682
(iDictEntry
dict_entry
p683
(dp684
g5
L170810L
sg6
I1
sbsS'apertur'
p685
(iDictEntry
dict_entry
p686
(dp687
g5
L24426L
sg6
I4
sbsS'rang'
p688
(iDictEntry
dict_entry
p689
(dp690
g5
L385437L
sg6
I5
sbsS'render'
p691
(iDictEntry
dict_entry
p692
(dp693
g5
L402302L
sg6
I2
sbsS'grade'
p694
(iDictEntry
dict_entry
p695
(dp696
g5
L205736L
sg6
I2
sbsS'independ'
p697
(iDictEntry
dict_entry
p698
(dp699
g5
L229725L
sg6
I1
sbsS'wast'
p700
(iDictEntry
dict_entry
p701
(dp702
g5
L531129L
sg6
I70
sbsS'thereof'
p703
(iDictEntry
dict_entry
p704
(dp705
g5
L490644L
sg6
I24
sbsS'capac'
p706
(iDictEntry
dict_entry
p707
(dp708
g5
L61475L
sg6
I1
sbsS'restrict'
p709
(iDictEntry
dict_entry
p710
(dp711
g5
L406241L
sg6
I2
sbsS'hook'
p712
(iDictEntry
dict_entry
p713
(dp714
g5
L215049L
sg6
I1
sbsS'instruct'
p715
(iDictEntry
dict_entry
p716
(dp717
g5
L236181L
sg6
I1
sbsS'fluorin'
p718
(iDictEntry
dict_entry
p719
(dp720
g5
L187829L
sg6
I1
sbsS'primari'
p721
(iDictEntry
dict_entry
p722
(dp723
g5
L363599L
sg6
I1
sbsS'hydrant'
p724
(iDictEntry
dict_entry
p725
(dp726
g5
L217596L
sg6
I1
sbsS'their'
p727
(iDictEntry
dict_entry
p728
(dp729
g5
L488416L
sg6
I1
sbsS'top'
p730
(iDictEntry
dict_entry
p731
(dp732
g5
L497917L
sg6
I9
sbsS'neck'
p733
(iDictEntry
dict_entry
p734
(dp735
g5
L303922L
sg6
I1
sbsS'fixedli'
p736
(iDictEntry
dict_entry
p737
(dp738
g5
L182594L
sg6
I1
sbsS'tangl'
p739
(iDictEntry
dict_entry
p740
(dp741
g5
L475927L
sg6
I1
sbsS'wastewat'
p742
(iDictEntry
dict_entry
p743
(dp744
g5
L535336L
sg6
I17
sbsS'mercuri'
p745
(iDictEntry
dict_entry
p746
(dp747
g5
L280264L
sg6
I3
sbsS'downsiz'
p748
(iDictEntry
dict_entry
p749
(dp750
g5
L140310L
sg6
I1
sbsS'master'
p751
(iDictEntry
dict_entry
p752
(dp753
g5
L268430L
sg6
I1
sbsS'similarli'
p754
(iDictEntry
dict_entry
p755
(dp756
g5
L435113L
sg6
I1
sbsS'unconfin'
p757
(iDictEntry
dict_entry
p758
(dp759
g5
L512257L
sg6
I1
sbsS'incub'
p760
(iDictEntry
dict_entry
p761
(dp762
g5
L229611L
sg6
I1
sbsS'foulant'
p763
(iDictEntry
dict_entry
p764
(dp765
g5
L194149L
sg6
I1
sbsS'lower'
p766
(iDictEntry
dict_entry
p767
(dp768
g5
L261860L
sg6
I11
sbsS'compressor'
p769
(iDictEntry
dict_entry
p770
(dp771
g5
L88184L
sg6
I2
sbsS'incur'
p772
(iDictEntry
dict_entry
p773
(dp774
g5
L229668L
sg6
I1
sbsS'conserv'
p775
(iDictEntry
dict_entry
p776
(dp777
g5
L96604L
sg6
I1
sbsS'foramin'
p778
(iDictEntry
dict_entry
p779
(dp780
g5
L190174L
sg6
I1
sbsS'provid'
p781
(iDictEntry
dict_entry
p782
(dp783
g5
L373949L
sg6
I79
sbsS'tree'
p784
(iDictEntry
dict_entry
p785
(dp786
g5
L508612L
sg6
I1
sbsS'rate'
p787
(iDictEntry
dict_entry
p788
(dp789
g5
L385919L
sg6
I7
sbsS'shower'
p790
(iDictEntry
dict_entry
p791
(dp792
g5
L432475L
sg6
I1
sbsS'matter'
p793
(iDictEntry
dict_entry
p794
(dp795
g5
L271616L
sg6
I7
sbsS'expo'
p796
(iDictEntry
dict_entry
p797
(dp798
g5
L167036L
sg6
I7
sbsS'pathogen'
p799
(iDictEntry
dict_entry
p800
(dp801
g5
L336027L
sg6
I1
sbsS'iron'
p802
(iDictEntry
dict_entry
p803
(dp804
g5
L243146L
sg6
I7
sbsS'polyethyleneglycol'
p805
(iDictEntry
dict_entry
p806
(dp807
g5
L346977L
sg6
I1
sbsS'minut'
p808
(iDictEntry
dict_entry
p809
(dp810
g5
L293225L
sg6
I5
sbsS'provis'
p811
(iDictEntry
dict_entry
p812
(dp813
g5
L378402L
sg6
I3
sbsS'pipett'
p814
(iDictEntry
dict_entry
p815
(dp816
g5
L342302L
sg6
I1
sbsS'spectrum'
p817
(iDictEntry
dict_entry
p818
(dp819
g5
L450527L
sg6
I1
sbsS'electrophotograph'
p820
(iDictEntry
dict_entry
p821
(dp822
g5
L151222L
sg6
I1
sbsS'miniatur'
p823
(iDictEntry
dict_entry
p824
(dp825
g5
L293061L
sg6
I1
sbsS'seen'
p826
(iDictEntry
dict_entry
p827
(dp828
g5
L418844L
sg6
I1
sbsS'strength'
p829
(iDictEntry
dict_entry
p830
(dp831
g5
L458475L
sg6
I1
sbsS'laden'
p832
(iDictEntry
dict_entry
p833
(dp834
g5
L246626L
sg6
I2
sbsS'entrap'
p835
(iDictEntry
dict_entry
p836
(dp837
g5
L159728L
sg6
I1
sbsS'latter'
p838
(iDictEntry
dict_entry
p839
(dp840
g5
L247504L
sg6
I1
sbsS'that'
p841
(iDictEntry
dict_entry
p842
(dp843
g5
L480168L
sg6
I1
sbsS'thorough'
p844
(iDictEntry
dict_entry
p845
(dp846
g5
L494525L
sg6
I1
sbsS'dival'
p847
(iDictEntry
dict_entry
p848
(dp849
g5
L138643L
sg6
I1
sbsS'transmit'
p850
(iDictEntry
dict_entry
p851
(dp852
g5
L500101L
sg6
I1
sbsS'canist'
p853
(iDictEntry
dict_entry
p854
(dp855
g5
L60938L
sg6
I1
sbsS'denitrif'
p856
(iDictEntry
dict_entry
p857
(dp858
g5
L116858L
sg6
I6
sbsS'object'
p859
(iDictEntry
dict_entry
p860
(dp861
g5
L310925L
sg6
I14
sbsS'shale'
p862
(iDictEntry
dict_entry
p863
(dp864
g5
L431410L
sg6
I1
sbsS'marin'
p865
(iDictEntry
dict_entry
p866
(dp867
g5
L267691L
sg6
I1
sbsS'artifact'
p868
(iDictEntry
dict_entry
p869
(dp870
g5
L34694L
sg6
I1
sbsS'phase'
p871
(iDictEntry
dict_entry
p872
(dp873
g5
L339995L
sg6
I8
sbsS'coil'
p874
(iDictEntry
dict_entry
p875
(dp876
g5
L78970L
sg6
I2
sbsS'insul'
p877
(iDictEntry
dict_entry
p878
(dp879
g5
L236244L
sg6
I1
sbsS'cathod'
p880
(iDictEntry
dict_entry
p881
(dp882
g5
L65199L
sg6
I1
sbsS'entrain'
p883
(iDictEntry
dict_entry
p884
(dp885
g5
L159614L
sg6
I1
sbsS'alarm'
p886
(iDictEntry
dict_entry
p887
(dp888
g5
L14321L
sg6
I2
sbsS'metal'
p889
(iDictEntry
dict_entry
p890
(dp891
g5
L281042L
sg6
I14
sbsS'floc'
p892
(iDictEntry
dict_entry
p893
(dp894
g5
L183484L
sg6
I1
sbsS'rotari'
p895
(iDictEntry
dict_entry
p896
(dp897
g5
L410407L
sg6
I2
sbsS'reactor'
p898
(iDictEntry
dict_entry
p899
(dp900
g5
L387318L
sg6
I12
sbsS'opposit'
p901
(iDictEntry
dict_entry
p902
(dp903
g5
L318979L
sg6
I7
sbsS'defloccul'
p904
(iDictEntry
dict_entry
p905
(dp906
g5
L115434L
sg6
I1
sbsS'transluc'
p907
(iDictEntry
dict_entry
p908
(dp909
g5
L500044L
sg6
I1
sbsS'earth'
p910
(iDictEntry
dict_entry
p911
(dp912
g5
L144145L
sg6
I2
sbsS'microdrop'
p913
(iDictEntry
dict_entry
p914
(dp915
g5
L291285L
sg6
I1
sbsS'sequest'
p916
(iDictEntry
dict_entry
p917
(dp918
g5
L425919L
sg6
I1
sbsS'involv'
p919
(iDictEntry
dict_entry
p920
(dp921
g5
L241998L
sg6
I6
sbsS'acquir'
p922
(iDictEntry
dict_entry
p923
(dp924
g5
L5808L
sg6
I2
sbsS'configur'
p925
(iDictEntry
dict_entry
p926
(dp927
g5
L94491L
sg6
I6
sbsS'siev'
p928
(iDictEntry
dict_entry
p929
(dp930
g5
L433699L
sg6
I1
sbsS'sugar'
p931
(iDictEntry
dict_entry
p932
(dp933
g5
L463318L
sg6
I2
sbsS'rich'
p934
(iDictEntry
dict_entry
p935
(dp936
g5
L409002L
sg6
I1
sbsS'548'
p937
(iDictEntry
dict_entry
p938
(dp939
g5
L2079L
sg6
I1
sbsS'rice'
p940
(iDictEntry
dict_entry
p941
(dp942
g5
L408898L
sg6
I2
sbsS'plate'
p943
(iDictEntry
dict_entry
p944
(dp945
g5
L344001L
sg6
I6
sbsS'wide'
p946
(iDictEntry
dict_entry
p947
(dp948
g5
L548759L
sg6
I2
sbsS'blur'
p949
(iDictEntry
dict_entry
p950
(dp951
g5
L52910L
sg6
I1
sbsS'watch'
p952
(iDictEntry
dict_entry
p953
(dp954
g5
L536450L
sg6
I1
sbsS'fluid'
p955
(iDictEntry
dict_entry
p956
(dp957
g5
L186182L
sg6
I24
sbsS'pocket'
p958
(iDictEntry
dict_entry
p959
(dp960
g5
L345910L
sg6
I1
sbsS'windblown'
p961
(iDictEntry
dict_entry
p962
(dp963
g5
L548868L
sg6
I1
sbsS'buoyantli'
p964
(iDictEntry
dict_entry
p965
(dp966
g5
L59454L
sg6
I1
sbsS'mutual'
p967
(iDictEntry
dict_entry
p968
(dp969
g5
L302173L
sg6
I3
sbsS'colloid'
p970
(iDictEntry
dict_entry
p971
(dp972
g5
L80497L
sg6
I4
sbsS'excel'
p973
(iDictEntry
dict_entry
p974
(dp975
g5
L164494L
sg6
I3
sbsS'hydrotherapeut'
p976
(iDictEntry
dict_entry
p977
(dp978
g5
L218832L
sg6
I1
sbsS'chromatograph'
p979
(iDictEntry
dict_entry
p980
(dp981
g5
L73017L
sg6
I1
sbsS'gaug'
p982
(iDictEntry
dict_entry
p983
(dp984
g5
L200733L
sg6
I1
sbsS'steam'
p985
(iDictEntry
dict_entry
p986
(dp987
g5
L454043L
sg6
I4
sbsS'motherboard'
p988
(iDictEntry
dict_entry
p989
(dp990
g5
L298941L
sg6
I1
sbsS'liquor'
p991
(iDictEntry
dict_entry
p992
(dp993
g5
L258304L
sg6
I4
sbsS'alkalin'
p994
(iDictEntry
dict_entry
p995
(dp996
g5
L14862L
sg6
I4
sbsS'resist'
p997
(iDictEntry
dict_entry
p998
(dp999
g5
L404731L
sg6
I5
sbsS'result'
p1000
(iDictEntry
dict_entry
p1001
(dp1002
g5
L406349L
sg6
I19
sbsS'respons'
p1003
(iDictEntry
dict_entry
p1004
(dp1005
g5
L405866L
sg6
I5
sbsS'impur'
p1006
(iDictEntry
dict_entry
p1007
(dp1008
g5
L223271L
sg6
I6
sbsS'subject'
p1009
(iDictEntry
dict_entry
p1010
(dp1011
g5
L460104L
sg6
I5
sbsS'said'
p1012
(iDictEntry
dict_entry
p1013
(dp1014
g5
L411825L
sg6
I18
sbsS'databas'
p1015
(iDictEntry
dict_entry
p1016
(dp1017
g5
L113219L
sg6
I6
sbsS'away'
p1018
(iDictEntry
dict_entry
p1019
(dp1020
g5
L39969L
sg6
I6
sbsS'yet'
p1021
(iDictEntry
dict_entry
p1022
(dp1023
g5
Nsg6
NsbsS'finger'
p1024
(iDictEntry
dict_entry
p1025
(dp1026
g5
L179644L
sg6
I1
sbsS'aquat'
p1027
(iDictEntry
dict_entry
p1028
(dp1029
g5
L31560L
sg6
I5
sbsS'drawn'
p1030
(iDictEntry
dict_entry
p1031
(dp1032
g5
L141465L
sg6
I2
sbsS'approach'
p1033
(iDictEntry
dict_entry
p1034
(dp1035
g5
L30915L
sg6
I1
sbsS'attribut'
p1036
(iDictEntry
dict_entry
p1037
(dp1038
g5
L38753L
sg6
I3
sbsS'accord'
p1039
(iDictEntry
dict_entry
p1040
(dp1041
g5
L3896L
sg6
I13
sbsS'unmodifi'
p1042
(iDictEntry
dict_entry
p1043
(dp1044
g5
L514105L
sg6
I1
sbsS'extend'
p1045
(iDictEntry
dict_entry
p1046
(dp1047
g5
L167410L
sg6
I7
sbsS'samarium'
p1048
(iDictEntry
dict_entry
p1049
(dp1050
g5
L413319L
sg6
I1
sbsS'weak'
p1051
(iDictEntry
dict_entry
p1052
(dp1053
g5
L545204L
sg6
I1
sbsS'thereon'
p1054
(iDictEntry
dict_entry
p1055
(dp1056
g5
L491892L
sg6
I2
sbsS'aquarium'
p1057
(iDictEntry
dict_entry
p1058
(dp1059
g5
L31362L
sg6
I3
sbsS'carbon'
p1060
(iDictEntry
dict_entry
p1061
(dp1062
g5
L62073L
sg6
I17
sbsS'roller'
p1063
(iDictEntry
dict_entry
p1064
(dp1065
g5
L410037L
sg6
I1
sbsS'protect'
p1066
(iDictEntry
dict_entry
p1067
(dp1068
g5
L372939L
sg6
I7
sbsS'acoust'
p1069
(iDictEntry
dict_entry
p1070
(dp1071
g5
L5730L
sg6
I1
sbsS'howev'
p1072
(iDictEntry
dict_entry
p1073
(dp1074
g5
L216727L
sg6
I1
sbsS'logic'
p1075
(iDictEntry
dict_entry
p1076
(dp1077
g5
L260731L
sg6
I2
sbsS'recircul'
p1078
(iDictEntry
dict_entry
p1079
(dp1080
g5
L390348L
sg6
I6
sbsS'character'
p1081
(iDictEntry
dict_entry
p1082
(dp1083
g5
L70158L
sg6
I5
sbsS'electrographi'
p1084
(iDictEntry
dict_entry
p1085
(dp1086
g5
L149883L
sg6
I1
sbsS'height'
p1087
(iDictEntry
dict_entry
p1088
(dp1089
g5
L211550L
sg6
I3
sbsS'exemplari'
p1090
(iDictEntry
dict_entry
p1091
(dp1092
g5
L165531L
sg6
I1
sbsS'cyclon'
p1093
(iDictEntry
dict_entry
p1094
(dp1095
g5
L111259L
sg6
I1
sbsS'guid'
p1096
(iDictEntry
dict_entry
p1097
(dp1098
g5
L208212L
sg6
I3
sbsS'ether'
p1099
(iDictEntry
dict_entry
p1100
(dp1101
g5
L163004L
sg6
I1
sbsS'three'
p1102
(iDictEntry
dict_entry
p1103
(dp1104
g5
L494582L
sg6
I5
sbsS'blower'
p1105
(iDictEntry
dict_entry
p1106
(dp1107
g5
L52796L
sg6
I1
sbsS'accumul'
p1108
(iDictEntry
dict_entry
p1109
(dp1110
g5
L4697L
sg6
I2
sbsS'backwash'
p1111
(iDictEntry
dict_entry
p1112
(dp1113
g5
L41429L
sg6
I4
sbsS'interest'
p1114
(iDictEntry
dict_entry
p1115
(dp1116
g5
L237149L
sg6
I1
sbsS'basic'
p1117
(iDictEntry
dict_entry
p1118
(dp1119
g5
L45446L
sg6
I3
sbsS'basin'
p1120
(iDictEntry
dict_entry
p1121
(dp1122
g5
L45606L
sg6
I2
sbsS'sulfid'
p1123
(iDictEntry
dict_entry
p1124
(dp1125
g5
L463929L
sg6
I1
sbsS'tini'
p1126
(iDictEntry
dict_entry
p1127
(dp1128
g5
L497097L
sg6
I1
sbsS'quickli'
p1129
(iDictEntry
dict_entry
p1130
(dp1131
g5
L384303L
sg6
I1
sbsS'life'
p1132
(iDictEntry
dict_entry
p1133
(dp1134
g5
L253460L
sg6
I3
sbsS'regul'
p1135
(iDictEntry
dict_entry
p1136
(dp1137
g5
L396039L
sg6
I6
sbsS'search'
p1138
(iDictEntry
dict_entry
p1139
(dp1140
g5
L416114L
sg6
I5
sbsS'taxan'
p1141
(iDictEntry
dict_entry
p1142
(dp1143
g5
L477464L
sg6
I1
sbsS'lift'
p1144
(iDictEntry
dict_entry
p1145
(dp1146
g5
L253637L
sg6
I2
sbsS'efficaci'
p1147
(iDictEntry
dict_entry
p1148
(dp1149
g5
L146169L
sg6
I1
sbsS'dosag'
p1150
(iDictEntry
dict_entry
p1151
(dp1152
g5
L139887L
sg6
I1
sbsS'spin'
p1153
(iDictEntry
dict_entry
p1154
(dp1155
g5
L450962L
sg6
I1
sbsS'pipelin'
p1156
(iDictEntry
dict_entry
p1157
(dp1158
g5
L342190L
sg6
I2
sbsS'inhibit'
p1159
(iDictEntry
dict_entry
p1160
(dp1161
g5
L231874L
sg6
I2
sbsS'tank'
p1162
(iDictEntry
dict_entry
p1163
(dp1164
g5
L476003L
sg6
I25
sbsS'servic'
p1165
(iDictEntry
dict_entry
p1166
(dp1167
g5
L426521L
sg6
I2
sbsS'properti'
p1168
(iDictEntry
dict_entry
p1169
(dp1170
g5
L372464L
sg6
I7
sbsS'commerci'
p1171
(iDictEntry
dict_entry
p1172
(dp1173
g5
L82774L
sg6
I4
sbsS'intak'
p1174
(iDictEntry
dict_entry
p1175
(dp1176
g5
L236301L
sg6
I1
sbsS'air'
p1177
(iDictEntry
dict_entry
p1178
(dp1179
g5
L12157L
sg6
I36
sbsS'employ'
p1180
(iDictEntry
dict_entry
p1181
(dp1182
g5
L154011L
sg6
I7
sbsS'calcium'
p1183
(iDictEntry
dict_entry
p1184
(dp1185
g5
L60145L
sg6
I4
sbsS'near'
p1186
(iDictEntry
dict_entry
p1187
(dp1188
g5
L303492L
sg6
I5
sbsS'aid'
p1189
(iDictEntry
dict_entry
p1190
(dp1191
g5
L11999L
sg6
I3
sbsS'ultrapur'
p1192
(iDictEntry
dict_entry
p1193
(dp1194
g5
L512036L
sg6
I1
sbsS'seven'
p1195
(iDictEntry
dict_entry
p1196
(dp1197
g5
L427370L
sg6
I1
sbsS'075'
p1198
(iDictEntry
dict_entry
p1199
(dp1200
g5
L57L
sg6
I1
sbsS'diaphragm'
p1201
(iDictEntry
dict_entry
p1202
(dp1203
g5
L125468L
sg6
I2
sbsS'tabl'
p1204
(iDictEntry
dict_entry
p1205
(dp1206
g5
L475273L
sg6
I1
sbsS'ventil'
p1207
(iDictEntry
dict_entry
p1208
(dp1209
g5
L525280L
sg6
I1
sbsS'biomembran'
p1210
(iDictEntry
dict_entry
p1211
(dp1212
g5
L51178L
sg6
I1
sbsS'cone'
p1213
(iDictEntry
dict_entry
p1214
(dp1215
g5
L94326L
sg6
I1
sbsS'exterior'
p1216
(iDictEntry
dict_entry
p1217
(dp1218
g5
L167782L
sg6
I1
sbsS'cogener'
p1219
(iDictEntry
dict_entry
p1220
(dp1221
g5
L78856L
sg6
I1
sbsS'sever'
p1222
(iDictEntry
dict_entry
p1223
(dp1224
g5
L427484L
sg6
I5
sbsS'grown'
p1225
(iDictEntry
dict_entry
p1226
(dp1227
g5
L207791L
sg6
I1
sbsS'inventori'
p1228
(iDictEntry
dict_entry
p1229
(dp1230
g5
L241884L
sg6
I1
sbsS'perform'
p1231
(iDictEntry
dict_entry
p1232
(dp1233
g5
L337502L
sg6
I12
sbsS'make'
p1234
(iDictEntry
dict_entry
p1235
(dp1236
g5
L265528L
sg6
I15
sbsS'format'
p1237
(iDictEntry
dict_entry
p1238
(dp1239
g5
L193135L
sg6
I3
sbsS'complex'
p1240
(iDictEntry
dict_entry
p1241
(dp1242
g5
L84546L
sg6
I1
sbsS'split'
p1243
(iDictEntry
dict_entry
p1244
(dp1245
g5
L451123L
sg6
I1
sbsS'complet'
p1246
(iDictEntry
dict_entry
p1247
(dp1248
g5
L84489L
sg6
I1
sbsS'wheel'
p1249
(iDictEntry
dict_entry
p1250
(dp1251
g5
L546730L
sg6
I1
sbsS'cellulos'
p1252
(iDictEntry
dict_entry
p1253
(dp1254
g5
L66542L
sg6
I1
sbsS'recharg'
p1255
(iDictEntry
dict_entry
p1256
(dp1257
g5
L390136L
sg6
I4
sbsS'sterilis'
p1258
(iDictEntry
dict_entry
p1259
(dp1260
g5
L455278L
sg6
I2
sbsS'hang'
p1261
(iDictEntry
dict_entry
p1262
(dp1263
g5
L209585L
sg6
I1
sbsS'upwardli'
p1264
(iDictEntry
dict_entry
p1265
(dp1266
g5
L515646L
sg6
I4
sbsS'deflect'
p1267
(iDictEntry
dict_entry
p1268
(dp1269
g5
L115327L
sg6
I2
sbsS'hand'
p1270
(iDictEntry
dict_entry
p1271
(dp1272
g5
L208670L
sg6
I5
sbsS'runoff'
p1273
(iDictEntry
dict_entry
p1274
(dp1275
g5
L411327L
sg6
I1
sbsS'depict'
p1276
(iDictEntry
dict_entry
p1277
(dp1278
g5
L117950L
sg6
I1
sbsS'boiler'
p1279
(iDictEntry
dict_entry
p1280
(dp1281
g5
L54204L
sg6
I1
sbsS'hygien'
p1282
(iDictEntry
dict_entry
p1283
(dp1284
g5
L219022L
sg6
I1
sbsS'refin'
p1285
(iDictEntry
dict_entry
p1286
(dp1287
g5
L394852L
sg6
I2
sbsS'facult'
p1288
(iDictEntry
dict_entry
p1289
(dp1290
g5
L170394L
sg6
I1
sbsS'microbi'
p1291
(iDictEntry
dict_entry
p1292
(dp1293
g5
L290611L
sg6
I3
sbsS'kept'
p1294
(iDictEntry
dict_entry
p1295
(dp1296
g5
L245397L
sg6
I1
sbsS'undesir'
p1297
(iDictEntry
dict_entry
p1298
(dp1299
g5
L512484L
sg6
I3
sbsS'thu'
p1300
(iDictEntry
dict_entry
p1301
(dp1302
g5
L495493L
sg6
I9
sbsS'qualit'
p1303
(iDictEntry
dict_entry
p1304
(dp1305
g5
L383226L
sg6
I1
sbsS'contact'
p1306
(iDictEntry
dict_entry
p1307
(dp1308
g5
L97914L
sg6
I18
sbsS'shortli'
p1309
(iDictEntry
dict_entry
p1310
(dp1311
g5
L432418L
sg6
I1
sbsS'wherebi'
p1312
(iDictEntry
dict_entry
p1313
(dp1314
g5
L547059L
sg6
I4
sbsS'thi'
p1315
(iDictEntry
dict_entry
p1316
(dp1317
g5
L492868L
sg6
I21
sbsS'programm'
p1318
(iDictEntry
dict_entry
p1319
(dp1320
g5
L371441L
sg6
I1
sbsS'bacteri'
p1321
(iDictEntry
dict_entry
p1322
(dp1323
g5
L41660L
sg6
I2
sbsS'microfib'
p1324
(iDictEntry
dict_entry
p1325
(dp1326
g5
L291447L
sg6
I1
sbsS'polysulfon'
p1327
(iDictEntry
dict_entry
p1328
(dp1329
g5
L347779L
sg6
I1
sbsS'identifi'
p1330
(iDictEntry
dict_entry
p1331
(dp1332
g5
L219388L
sg6
I7
sbsS'humat'
p1333
(iDictEntry
dict_entry
p1334
(dp1335
g5
L217099L
sg6
I1
sbsS'human'
p1336
(iDictEntry
dict_entry
p1337
(dp1338
g5
L216841L
sg6
I5
sbsS'sewag'
p1339
(iDictEntry
dict_entry
p1340
(dp1341
g5
L427748L
sg6
I66
sbsS'impregn'
p1342
(iDictEntry
dict_entry
p1343
(dp1344
g5
L222598L
sg6
I1
sbsS'previous'
p1345
(iDictEntry
dict_entry
p1346
(dp1347
g5
L363490L
sg6
I2
sbsS'characterist'
p1348
(iDictEntry
dict_entry
p1349
(dp1350
g5
L70427L
sg6
I7
sbsS'easi'
p1351
(iDictEntry
dict_entry
p1352
(dp1353
g5
L144252L
sg6
I2
sbsS'Gas'
p1354
(iDictEntry
dict_entry
p1355
(dp1356
g5
Nsg6
NsbsS'board'
p1357
(iDictEntry
dict_entry
p1358
(dp1359
g5
L52969L
sg6
I2
sbsS'vapour'
p1360
(iDictEntry
dict_entry
p1361
(dp1362
g5
L523964L
sg6
I1
sbsS'plasma'
p1363
(iDictEntry
dict_entry
p1364
(dp1365
g5
L343731L
sg6
I1
sbsS'deterg'
p1366
(iDictEntry
dict_entry
p1367
(dp1368
g5
L121552L
sg6
I1
sbsS'sanit'
p1369
(iDictEntry
dict_entry
p1370
(dp1371
g5
L413823L
sg6
I2
sbsS'applic'
p1372
(iDictEntry
dict_entry
p1373
(dp1374
g5
L30301L
sg6
I12
sbsS'dissip'
p1375
(iDictEntry
dict_entry
p1376
(dp1377
g5
L136631L
sg6
I1
sbsS'preserv'
p1378
(iDictEntry
dict_entry
p1379
(dp1380
g5
L360137L
sg6
I6
sbsS'norcardia'
p1381
(iDictEntry
dict_entry
p1382
(dp1383
g5
L307294L
sg6
I1
sbsS'background'
p1384
(iDictEntry
dict_entry
p1385
(dp1386
g5
L41366L
sg6
I1
sbsS'destroy'
p1387
(iDictEntry
dict_entry
p1388
(dp1389
g5
L120268L
sg6
I2
sbsS'burnt'
p1390
(iDictEntry
dict_entry
p1391
(dp1392
g5
L59625L
sg6
I1
sbsS'detector'
p1393
(iDictEntry
dict_entry
p1394
(dp1395
g5
L121344L
sg6
I2
sbsS'apart'
p1396
(iDictEntry
dict_entry
p1397
(dp1398
g5
L24268L
sg6
I3
sbsS'measur'
p1399
(iDictEntry
dict_entry
p1400
(dp1401
g5
L275887L
sg6
I7
sbsS'nozzl'
p1402
(iDictEntry
dict_entry
p1403
(dp1404
g5
L308562L
sg6
I20
sbsS'specif'
p1405
(iDictEntry
dict_entry
p1406
(dp1407
g5
L450081L
sg6
I5
sbsS'transvers'
p1408
(iDictEntry
dict_entry
p1409
(dp1410
g5
L500373L
sg6
I1
sbsS'manual'
p1411
(iDictEntry
dict_entry
p1412
(dp1413
g5
L267097L
sg6
I3
sbsS'soap'
p1414
(iDictEntry
dict_entry
p1415
(dp1416
g5
L443563L
sg6
I2
sbsS'night'
p1417
(iDictEntry
dict_entry
p1418
(dp1419
g5
L305349L
sg6
I1
sbsS'amorph'
p1420
(iDictEntry
dict_entry
p1421
(dp1422
g5
L19503L
sg6
I1
sbsS'oxid'
p1423
(iDictEntry
dict_entry
p1424
(dp1425
g5
L326501L
sg6
I15
sbsS'salin'
p1426
(iDictEntry
dict_entry
p1427
(dp1428
g5
L412781L
sg6
I2
sbsS'soybean'
p1429
(iDictEntry
dict_entry
p1430
(dp1431
g5
L448524L
sg6
I2
sbsS'interv'
p1432
(iDictEntry
dict_entry
p1433
(dp1434
g5
L238203L
sg6
I1
sbsS'maxim'
p1435
(iDictEntry
dict_entry
p1436
(dp1437
g5
L271986L
sg6
I1
sbsS'dead'
p1438
(iDictEntry
dict_entry
p1439
(dp1440
g5
L113732L
sg6
I2
sbsS'intern'
p1441
(iDictEntry
dict_entry
p1442
(dp1443
g5
L237862L
sg6
I3
sbsS'bore'
p1444
(iDictEntry
dict_entry
p1445
(dp1446
g5
L54602L
sg6
I2
sbsS'denier'
p1447
(iDictEntry
dict_entry
p1448
(dp1449
g5
L116750L
sg6
I1
sbsS'total'
p1450
(iDictEntry
dict_entry
p1451
(dp1452
g5
L498507L
sg6
I3
sbsS'cooper'
p1453
(iDictEntry
dict_entry
p1454
(dp1455
g5
L106677L
sg6
I1
sbsS'bottom'
p1456
(iDictEntry
dict_entry
p1457
(dp1458
g5
L54709L
sg6
I17
sbsS'slurri'
p1459
(iDictEntry
dict_entry
p1460
(dp1461
g5
L442205L
sg6
I7
sbsS'ice'
p1462
(iDictEntry
dict_entry
p1463
(dp1464
g5
Nsg6
NsbsS'buffer'
p1465
(iDictEntry
dict_entry
p1466
(dp1467
g5
L58656L
sg6
I1
sbsS'newsprint'
p1468
(iDictEntry
dict_entry
p1469
(dp1470
g5
L305235L
sg6
I1
sbsS'condit'
p1471
(iDictEntry
dict_entry
p1472
(dp1473
g5
L93361L
sg6
I12
sbsS'core'
p1474
(iDictEntry
dict_entry
p1475
(dp1476
g5
L106734L
sg6
I2
sbsS'sensibl'
p1477
(iDictEntry
dict_entry
p1478
(dp1479
g5
L420891L
sg6
I1
sbsS'peel'
p1480
(iDictEntry
dict_entry
p1481
(dp1482
g5
L336650L
sg6
I1
sbsS'MPa'
p1483
(iDictEntry
dict_entry
p1484
(dp1485
g5
L300785L
sg6
I1
sbsS'pose'
p1486
(iDictEntry
dict_entry
p1487
(dp1488
g5
L351555L
sg6
I1
sbsS'confer'
p1489
(iDictEntry
dict_entry
p1490
(dp1491
g5
L94383L
sg6
I1
sbsS'binder'
p1492
(iDictEntry
dict_entry
p1493
(dp1494
g5
L48263L
sg6
I1
sbsS'promot'
p1495
(iDictEntry
dict_entry
p1496
(dp1497
g5
L371983L
sg6
I2
sbsS'post'
p1498
(iDictEntry
dict_entry
p1499
(dp1500
g5
L352910L
sg6
I4
sbsS'super'
p1501
(iDictEntry
dict_entry
p1502
(dp1503
g5
L464408L
sg6
I1
sbsS'plug'
p1504
(iDictEntry
dict_entry
p1505
(dp1506
g5
L344660L
sg6
I1
sbsS'slightli'
p1507
(iDictEntry
dict_entry
p1508
(dp1509
g5
L437875L
sg6
I3
sbsS'surround'
p1510
(iDictEntry
dict_entry
p1511
(dp1512
g5
L469156L
sg6
I6
sbsS'contamin'
p1513
(iDictEntry
dict_entry
p1514
(dp1515
g5
L101928L
sg6
I13
sbsS'coars'
p1516
(iDictEntry
dict_entry
p1517
(dp1518
g5
L78097L
sg6
I1
sbsS'alga'
p1519
(iDictEntry
dict_entry
p1520
(dp1521
g5
L14636L
sg6
I1
sbsS'sequestr'
p1522
(iDictEntry
dict_entry
p1523
(dp1524
g5
L425976L
sg6
I1
sbsS'produc'
p1525
(iDictEntry
dict_entry
p1526
(dp1527
g5
L368497L
sg6
I35
sbsS'Use'
p1528
(iDictEntry
dict_entry
p1529
(dp1530
g5
Nsg6
NsbsS'telephon'
p1531
(iDictEntry
dict_entry
p1532
(dp1533
g5
L478307L
sg6
I2
sbsS'ethoxyl'
p1534
(iDictEntry
dict_entry
p1535
(dp1536
g5
L163061L
sg6
I1
sbsS'float'
p1537
(iDictEntry
dict_entry
p1538
(dp1539
g5
L183214L
sg6
I5
sbsS'encod'
p1540
(iDictEntry
dict_entry
p1541
(dp1542
g5
L155663L
sg6
I1
sbsS'bound'
p1543
(iDictEntry
dict_entry
p1544
(dp1545
g5
L55609L
sg6
I2
sbsS'bath'
p1546
(iDictEntry
dict_entry
p1547
(dp1548
g5
L45877L
sg6
I4
sbsS'resili'
p1549
(iDictEntry
dict_entry
p1550
(dp1551
g5
L404341L
sg6
I2
sbsS'coastal'
p1552
(iDictEntry
dict_entry
p1553
(dp1554
g5
L78154L
sg6
I1
sbsS'storag'
p1555
(iDictEntry
dict_entry
p1556
(dp1557
g5
L455756L
sg6
I6
sbsS'accordingli'
p1558
(iDictEntry
dict_entry
p1559
(dp1560
g5
L4591L
sg6
I2
sbsS'fabric'
p1561
(iDictEntry
dict_entry
p1562
(dp1563
g5
L169338L
sg6
I2
sbsS'suffici'
p1564
(iDictEntry
dict_entry
p1565
(dp1566
g5
L462895L
sg6
I8
sbsS'support'
p1567
(iDictEntry
dict_entry
p1568
(dp1569
g5
L466246L
sg6
I14
sbsS'transform'
p1570
(iDictEntry
dict_entry
p1571
(dp1572
g5
L499771L
sg6
I3
sbsS'avail'
p1573
(iDictEntry
dict_entry
p1574
(dp1575
g5
L39745L
sg6
I3
sbsS'formul'
p1576
(iDictEntry
dict_entry
p1577
(dp1578
g5
L193426L
sg6
I2
sbsS'way'
p1579
(iDictEntry
dict_entry
p1580
(dp1581
g5
L545097L
sg6
I2
sbsS'synthesis'
p1582
(iDictEntry
dict_entry
p1583
(dp1584
g5
L470543L
sg6
I3
sbsS'analysi'
p1585
(iDictEntry
dict_entry
p1586
(dp1587
g5
L20984L
sg6
I4
sbsS'head'
p1588
(iDictEntry
dict_entry
p1589
(dp1590
g5
L210092L
sg6
I3
sbsS'medium'
p1591
(iDictEntry
dict_entry
p1592
(dp1593
g5
L276783L
sg6
I29
sbsS'form'
p1594
(iDictEntry
dict_entry
p1595
(dp1596
g5
L190876L
sg6
I42
sbsS'offer'
p1597
(iDictEntry
dict_entry
p1598
(dp1599
g5
L312559L
sg6
I1
sbsS'catalysi'
p1600
(iDictEntry
dict_entry
p1601
(dp1602
g5
L65088L
sg6
I1
sbsS'surveil'
p1603
(iDictEntry
dict_entry
p1604
(dp1605
g5
L469473L
sg6
I1
sbsS'decompos'
p1606
(iDictEntry
dict_entry
p1607
(dp1608
g5
L114085L
sg6
I5
sbsS'substrat'
p1609
(iDictEntry
dict_entry
p1610
(dp1611
g5
L462074L
sg6
I7
sbsS'heat'
p1612
(iDictEntry
dict_entry
p1613
(dp1614
g5
L210415L
sg6
I11
sbsS'refriger'
p1615
(iDictEntry
dict_entry
p1616
(dp1617
g5
L395117L
sg6
I2
sbsS'221'
p1618
(iDictEntry
dict_entry
p1619
(dp1620
g5
L1454L
sg6
I1
sbsS'spun'
p1621
(iDictEntry
dict_entry
p1622
(dp1623
g5
L452549L
sg6
I1
sbsS'sludg'
p1624
(iDictEntry
dict_entry
p1625
(dp1626
g5
L438254L
sg6
I68
sbsS'maximum'
p1627
(iDictEntry
dict_entry
p1628
(dp1629
g5
L272043L
sg6
I1
sbsS'intermedi'
p1630
(iDictEntry
dict_entry
p1631
(dp1632
g5
L237693L
sg6
I1
sbsS'crystal'
p1633
(iDictEntry
dict_entry
p1634
(dp1635
g5
L109844L
sg6
I2
sbsS'pest'
p1636
(iDictEntry
dict_entry
p1637
(dp1638
g5
L339517L
sg6
I2
sbsS'absenc'
p1639
(iDictEntry
dict_entry
p1640
(dp1641
g5
L2747L
sg6
I1
sbsS'dissemin'
p1642
(iDictEntry
dict_entry
p1643
(dp1644
g5
L136574L
sg6
I1
sbsS'sealant'
p1645
(iDictEntry
dict_entry
p1646
(dp1647
g5
L416038L
sg6
I1
sbsS'featur'
p1648
(iDictEntry
dict_entry
p1649
(dp1650
g5
L171196L
sg6
I14
sbsS'saltwat'
p1651
(iDictEntry
dict_entry
p1652
(dp1653
g5
L413262L
sg6
I1
sbsS'potabl'
p1654
(iDictEntry
dict_entry
p1655
(dp1656
g5
L353115L
sg6
I3
sbsS'exist'
p1657
(iDictEntry
dict_entry
p1658
(dp1659
g5
L166014L
sg6
I4
sbsS'ship'
p1660
(iDictEntry
dict_entry
p1661
(dp1662
g5
L432178L
sg6
I2
sbsS'polyvinyl'
p1663
(iDictEntry
dict_entry
p1664
(dp1665
g5
L347855L
sg6
I1
sbsS'mold'
p1666
(iDictEntry
dict_entry
p1667
(dp1668
g5
L297828L
sg6
I2
sbsS'check'
p1669
(iDictEntry
dict_entry
p1670
(dp1671
g5
L71258L
sg6
I2
sbsS'assembl'
p1672
(iDictEntry
dict_entry
p1673
(dp1674
g5
L35244L
sg6
I11
sbsS'sidestream'
p1675
(iDictEntry
dict_entry
p1676
(dp1677
g5
L433585L
sg6
I1
sbsS'tip'
p1678
(iDictEntry
dict_entry
p1679
(dp1680
g5
L497154L
sg6
I1
sbsS'biocid'
p1681
(iDictEntry
dict_entry
p1682
(dp1683
g5
L48434L
sg6
I3
sbsS'nonoxid'
p1684
(iDictEntry
dict_entry
p1685
(dp1686
g5
L307180L
sg6
I1
sbsS'encas'
p1687
(iDictEntry
dict_entry
p1688
(dp1689
g5
L155269L
sg6
I2
sbsS'pictori'
p1690
(iDictEntry
dict_entry
p1691
(dp1692
g5
L341417L
sg6
I2
sbsS'test'
p1693
(iDictEntry
dict_entry
p1694
(dp1695
g5
L479515L
sg6
I3
sbsS'whey'
p1696
(iDictEntry
dict_entry
p1697
(dp1698
g5
L548450L
sg6
I1
sbsS'smell'
p1699
(iDictEntry
dict_entry
p1700
(dp1701
g5
L443338L
sg6
I1
sbsS'realiti'
p1702
(iDictEntry
dict_entry
p1703
(dp1704
g5
L388328L
sg6
I1
sbsS'intend'
p1705
(iDictEntry
dict_entry
p1706
(dp1707
g5
L236602L
sg6
I1
sbsS'subdivid'
p1708
(iDictEntry
dict_entry
p1709
(dp1710
g5
L460047L
sg6
I1
sbsS'ammonium'
p1711
(iDictEntry
dict_entry
p1712
(dp1713
g5
L19376L
sg6
I2
sbsS'imping'
p1714
(iDictEntry
dict_entry
p1715
(dp1716
g5
L222035L
sg6
I2
sbsS'uniformli'
p1717
(iDictEntry
dict_entry
p1718
(dp1719
g5
L512856L
sg6
I2
sbsS'polyeth'
p1720
(iDictEntry
dict_entry
p1721
(dp1722
g5
L346863L
sg6
I1
sbsS'femal'
p1723
(iDictEntry
dict_entry
p1724
(dp1725
g5
L172981L
sg6
I1
sbsS'longer'
p1726
(iDictEntry
dict_entry
p1727
(dp1728
g5
L261059L
sg6
I1
sbsS'furthermor'
p1729
(iDictEntry
dict_entry
p1730
(dp1731
g5
L197677L
sg6
I1
sbsS'cycloid'
p1732
(iDictEntry
dict_entry
p1733
(dp1734
g5
L111202L
sg6
I1
sbsS'turbul'
p1735
(iDictEntry
dict_entry
p1736
(dp1737
g5
L509788L
sg6
I1
sbsS'geometr'
p1738
(iDictEntry
dict_entry
p1739
(dp1740
g5
L204670L
sg6
I1
sbsS'teeth'
p1741
(iDictEntry
dict_entry
p1742
(dp1743
g5
L478196L
sg6
I1
sbsS'push'
p1744
(iDictEntry
dict_entry
p1745
(dp1746
g5
L382806L
sg6
I1
sbsS'concept'
p1747
(iDictEntry
dict_entry
p1748
(dp1749
g5
L92963L
sg6
I1
sbsS'raffin'
p1750
(iDictEntry
dict_entry
p1751
(dp1752
g5
L385049L
sg6
I1
sbsS'chain'
p1753
(iDictEntry
dict_entry
p1754
(dp1755
g5
L68168L
sg6
I1
sbsS'global'
p1756
(iDictEntry
dict_entry
p1757
(dp1758
g5
L205458L
sg6
I1
sbsS'centrifug'
p1759
(iDictEntry
dict_entry
p1760
(dp1761
g5
L67135L
sg6
I8
sbsS'invent'
p1762
(iDictEntry
dict_entry
p1763
(dp1764
g5
L239445L
sg6
I45
sbsS'pvam'
p1765
(iDictEntry
dict_entry
p1766
(dp1767
g5
L382979L
sg6
I1
sbsS'mild'
p1768
(iDictEntry
dict_entry
p1769
(dp1770
g5
L292588L
sg6
I1
sbsS'supplement'
p1771
(iDictEntry
dict_entry
p1772
(dp1773
g5
L464707L
sg6
I2
sbsS'subclass'
p1774
(iDictEntry
dict_entry
p1775
(dp1776
g5
L459899L
sg6
I3
sbsS'mill'
p1777
(iDictEntry
dict_entry
p1778
(dp1779
g5
L292645L
sg6
I1
sbsS'rot'
p1780
(iDictEntry
dict_entry
p1781
(dp1782
g5
L410348L
sg6
I1
sbsS'retrofit'
p1783
(iDictEntry
dict_entry
p1784
(dp1785
g5
L408251L
sg6
I1
sbsS'depend'
p1786
(iDictEntry
dict_entry
p1787
(dp1788
g5
L117685L
sg6
I5
sbsS'zone'
p1789
(iDictEntry
dict_entry
p1790
(dp1791
g5
L552384L
sg6
I3
sbsS'formic'
p1792
(iDictEntry
dict_entry
p1793
(dp1794
g5
L193369L
sg6
I1
sbsS'proxim'
p1795
(iDictEntry
dict_entry
p1796
(dp1797
g5
L378560L
sg6
I1
sbsS'readabl'
p1798
(iDictEntry
dict_entry
p1799
(dp1800
g5
L388067L
sg6
I3
sbsS'catalyz'
p1801
(iDictEntry
dict_entry
p1802
(dp1803
g5
L65142L
sg6
I1
sbsS'turbin'
p1804
(iDictEntry
dict_entry
p1805
(dp1806
g5
L509628L
sg6
I3
sbsS'environment'
p1807
(iDictEntry
dict_entry
p1808
(dp1809
g5
L160250L
sg6
I3
sbsS'quasi'
p1810
(iDictEntry
dict_entry
p1811
(dp1812
g5
L384080L
sg6
I1
sbsS'decis'
p1813
(iDictEntry
dict_entry
p1814
(dp1815
g5
L114023L
sg6
I1
sbsS'128'
p1816
(iDictEntry
dict_entry
p1817
(dp1818
g5
L937L
sg6
I1
sbsS'sourc'
p1819
(iDictEntry
dict_entry
p1820
(dp1821
g5
L447948L
sg6
I11
sbsS'telegraph'
p1822
(iDictEntry
dict_entry
p1823
(dp1824
g5
L478253L
sg6
I1
sbsS'feasibl'
p1825
(iDictEntry
dict_entry
p1826
(dp1827
g5
L171082L
sg6
I1
sbsS'insolubl'
p1828
(iDictEntry
dict_entry
p1829
(dp1830
g5
L235366L
sg6
I3
sbsS'blast'
p1831
(iDictEntry
dict_entry
p1832
(dp1833
g5
L52070L
sg6
I1
sbsS'cucurbituril'
p1834
(iDictEntry
dict_entry
p1835
(dp1836
g5
L110065L
sg6
I1
sbsS'cool'
p1837
(iDictEntry
dict_entry
p1838
(dp1839
g5
L106392L
sg6
I4
sbsS'administr'
p1840
(iDictEntry
dict_entry
p1841
(dp1842
g5
L9016L
sg6
I1
sbsS'level'
p1843
(iDictEntry
dict_entry
p1844
(dp1845
g5
L252512L
sg6
I14
sbsS'tear'
p1846
(iDictEntry
dict_entry
p1847
(dp1848
g5
L477573L
sg6
I1
sbsS'dig'
p1849
(iDictEntry
dict_entry
p1850
(dp1851
g5
L126990L
sg6
I1
sbsS'gun'
p1852
(iDictEntry
dict_entry
p1853
(dp1854
g5
L208372L
sg6
I1
sbsS'countercurr'
p1855
(iDictEntry
dict_entry
p1856
(dp1857
g5
L108029L
sg6
I1
sbsS'magnet'
p1858
(iDictEntry
dict_entry
p1859
(dp1860
g5
L264026L
sg6
I2
sbsS'item'
p1861
(iDictEntry
dict_entry
p1862
(dp1863
g5
L244007L
sg6
I3
sbsS'woven'
p1864
(iDictEntry
dict_entry
p1865
(dp1866
g5
L551808L
sg6
I1
sbsS'prevent'
p1867
(iDictEntry
dict_entry
p1868
(dp1869
g5
L362494L
sg6
I17
sbsS'pore'
p1870
(iDictEntry
dict_entry
p1871
(dp1872
g5
L348349L
sg6
I6
sbsS'cost'
p1873
(iDictEntry
dict_entry
p1874
(dp1875
g5
L107746L
sg6
I2
sbsS'ORP'
p1876
(iDictEntry
dict_entry
p1877
(dp1878
g5
L322764L
sg6
I1
sbsS'hereindescrib'
p1879
(iDictEntry
dict_entry
p1880
(dp1881
g5
L212545L
sg6
I1
sbsS'port'
p1882
(iDictEntry
dict_entry
p1883
(dp1884
g5
L349180L
sg6
I5
sbsS'precipit'
p1885
(iDictEntry
dict_entry
p1886
(dp1887
g5
L354790L
sg6
I8
sbsS'appear'
p1888
(iDictEntry
dict_entry
p1889
(dp1890
g5
L29440L
sg6
I1
sbsS'filler'
p1891
(iDictEntry
dict_entry
p1892
(dp1893
g5
L174718L
sg6
I1
sbsS'uniform'
p1894
(iDictEntry
dict_entry
p1895
(dp1896
g5
L512696L
sg6
I3
sbsS'current'
p1897
(iDictEntry
dict_entry
p1898
(dp1899
g5
L110615L
sg6
I3
sbsS'axial'
p1900
(iDictEntry
dict_entry
p1901
(dp1902
g5
L40551L
sg6
I6
sbsS'suspect'
p1903
(iDictEntry
dict_entry
p1904
(dp1905
g5
L469532L
sg6
I1
sbsS'fifti'
p1906
(iDictEntry
dict_entry
p1907
(dp1908
g5
L174133L
sg6
I1
sbsS'burn'
p1909
(iDictEntry
dict_entry
p1910
(dp1911
g5
L59511L
sg6
I1
sbsS'deriv'
p1912
(iDictEntry
dict_entry
p1913
(dp1914
g5
L118513L
sg6
I3
sbsS'osmosi'
p1915
(iDictEntry
dict_entry
p1916
(dp1917
g5
L322820L
sg6
I1
sbsS'gener'
p1918
(iDictEntry
dict_entry
p1919
(dp1920
g5
L200982L
sg6
I60
sbsS'coeffici'
p1921
(iDictEntry
dict_entry
p1922
(dp1923
g5
L78749L
sg6
I2
sbsS'water'
p1924
(iDictEntry
dict_entry
p1925
(dp1926
g5
L536509L
sg6
I116
sbsS'modif'
p1927
(iDictEntry
dict_entry
p1928
(dp1929
g5
L297050L
sg6
I1
sbsS'purif'
p1930
(iDictEntry
dict_entry
p1931
(dp1932
g5
L380782L
sg6
I12
sbsS'along'
p1933
(iDictEntry
dict_entry
p1934
(dp1935
g5
L16278L
sg6
I11
sbsS'plunger'
p1936
(iDictEntry
dict_entry
p1937
(dp1938
g5
L344773L
sg6
I1
sbsS'dewat'
p1939
(iDictEntry
dict_entry
p1940
(dp1941
g5
L125101L
sg6
I1
sbsS'box'
p1942
(iDictEntry
dict_entry
p1943
(dp1944
g5
L55716L
sg6
I2
sbsS'volumin'
p1945
(iDictEntry
dict_entry
p1946
(dp1947
g5
L529823L
sg6
I1
sbsS'precursor'
p1948
(iDictEntry
dict_entry
p1949
(dp1950
g5
L355213L
sg6
I2
sbsS'shift'
p1951
(iDictEntry
dict_entry
p1952
(dp1953
g5
L432121L
sg6
I1
sbsS'thirti'
p1954
(iDictEntry
dict_entry
p1955
(dp1956
g5
L494468L
sg6
I1
sbsS'extrem'
p1957
(iDictEntry
dict_entry
p1958
(dp1959
g5
L169203L
sg6
I1
sbsS'nylon'
p1960
(iDictEntry
dict_entry
p1961
(dp1962
g5
L310868L
sg6
I1
sbsS'anoxia'
p1963
(iDictEntry
dict_entry
p1964
(dp1965
g5
L23897L
sg6
I1
sbsS'orient'
p1966
(iDictEntry
dict_entry
p1967
(dp1968
g5
L322286L
sg6
I4
sbsS'dioxid'
p1969
(iDictEntry
dict_entry
p1970
(dp1971
g5
L128112L
sg6
I7
sbsS'modul'
p1972
(iDictEntry
dict_entry
p1973
(dp1974
g5
L297393L
sg6
I3
sbsS'prefer'
p1975
(iDictEntry
dict_entry
p1976
(dp1977
g5
L355755L
sg6
I23
sbsS'plumb'
p1978
(iDictEntry
dict_entry
p1979
(dp1980
g5
L344717L
sg6
I1
sbsS'supersatur'
p1981
(iDictEntry
dict_entry
p1982
(dp1983
g5
L464598L
sg6
I1
sbsS'instal'
p1984
(iDictEntry
dict_entry
p1985
(dp1986
g5
L235670L
sg6
I7
sbsS'mobil'
p1987
(iDictEntry
dict_entry
p1988
(dp1989
g5
L296425L
sg6
I2
sbsS'prolong'
p1990
(iDictEntry
dict_entry
p1991
(dp1992
g5
L371927L
sg6
I1
sbsS'memori'
p1993
(iDictEntry
dict_entry
p1994
(dp1995
g5
L280100L
sg6
I3
sbsS'edibl'
p1996
(iDictEntry
dict_entry
p1997
(dp1998
g5
L145108L
sg6
I2
sbsS'connector'
p1999
(iDictEntry
dict_entry
p2000
(dp2001
g5
L96331L
sg6
I2
sbsS'live'
p2002
(iDictEntry
dict_entry
p2003
(dp2004
g5
L258751L
sg6
I4
sbsS'virtur'
p2005
(iDictEntry
dict_entry
p2006
(dp2007
g5
L528573L
sg6
I1
sbsS'enhanc'
p2008
(iDictEntry
dict_entry
p2009
(dp2010
g5
L157763L
sg6
I10
sbsS'fuel'
p2011
(iDictEntry
dict_entry
p2012
(dp2013
g5
L196664L
sg6
I3
sbsS'visual'
p2014
(iDictEntry
dict_entry
p2015
(dp2016
g5
L528790L
sg6
I3
sbsS'rigid'
p2017
(iDictEntry
dict_entry
p2018
(dp2019
g5
L409116L
sg6
I4
sbsS'examin'
p2020
(iDictEntry
dict_entry
p2021
(dp2022
g5
L163837L
sg6
I1
sbsS'chargeabl'
p2023
(iDictEntry
dict_entry
p2024
(dp2025
g5
L71066L
sg6
I2
sbsS'ultraviolet'
p2026
(iDictEntry
dict_entry
p2027
(dp2028
g5
L512150L
sg6
I2
sbsS'graphic'
p2029
(iDictEntry
dict_entry
p2030
(dp2031
g5
L206112L
sg6
I1
sbsS'elucid'
p2032
(iDictEntry
dict_entry
p2033
(dp2034
g5
L152655L
sg6
I1
sbsS'prepar'
p2035
(iDictEntry
dict_entry
p2036
(dp2037
g5
L357036L
sg6
I9
sbsS'cap'
p2038
(iDictEntry
dict_entry
p2039
(dp2040
g5
L61043L
sg6
I2
sbsS'judg'
p2041
(iDictEntry
dict_entry
p2042
(dp2043
g5
L245053L
sg6
I1
sbsS'uniqu'
p2044
(iDictEntry
dict_entry
p2045
(dp2046
g5
L512963L
sg6
I2
sbsS'impel'
p2047
(iDictEntry
dict_entry
p2048
(dp2049
g5
L221818L
sg6
I3
sbsS'descriptor'
p2050
(iDictEntry
dict_entry
p2051
(dp2052
g5
L119310L
sg6
I1
sbsS'purpos'
p2053
(iDictEntry
dict_entry
p2054
(dp2055
g5
L382337L
sg6
I9
sbsS'difructos'
p2056
(iDictEntry
dict_entry
p2057
(dp2058
g5
L126914L
sg6
I1
sbsS'indicia'
p2059
(iDictEntry
dict_entry
p2060
(dp2061
g5
L229999L
sg6
I1
sbsS'phosphor'
p2062
(iDictEntry
dict_entry
p2063
(dp2064
g5
L340830L
sg6
I1
sbsS'nearest'
p2065
(iDictEntry
dict_entry
p2066
(dp2067
g5
L303756L
sg6
I1
sbsS'puriti'
p2068
(iDictEntry
dict_entry
p2069
(dp2070
g5
L382230L
sg6
I2
sbsS'stream'
p2071
(iDictEntry
dict_entry
p2072
(dp2073
g5
L457457L
sg6
I18
sbsS'agent'
p2074
(iDictEntry
dict_entry
p2075
(dp2076
g5
L11053L
sg6
I9
sbsS'critic'
p2077
(iDictEntry
dict_entry
p2078
(dp2079
g5
L109384L
sg6
I2
sbsS'recycl'
p2080
(iDictEntry
dict_entry
p2081
(dp2082
g5
L392541L
sg6
I11
sbsS'spa'
p2083
(iDictEntry
dict_entry
p2084
(dp2085
g5
L448629L
sg6
I1
sbsS'radionuclid'
p2086
(iDictEntry
dict_entry
p2087
(dp2088
g5
L384944L
sg6
I2
sbsS'hydrogen'
p2089
(iDictEntry
dict_entry
p2090
(dp2091
g5
L217926L
sg6
I5
sbsS'occur'
p2092
(iDictEntry
dict_entry
p2093
(dp2094
g5
L312346L
sg6
I4
sbsS'differenti'
p2095
(iDictEntry
dict_entry
p2096
(dp2097
g5
L126163L
sg6
I2
sbsS'multipl'
p2098
(iDictEntry
dict_entry
p2099
(dp2100
g5
L301389L
sg6
I5
sbsS'husbandri'
p2101
(iDictEntry
dict_entry
p2102
(dp2103
g5
L217338L
sg6
I4
sbsS'purg'
p2104
(iDictEntry
dict_entry
p2105
(dp2106
g5
L380725L
sg6
I1
sbsS'pure'
p2107
(iDictEntry
dict_entry
p2108
(dp2109
g5
L380353L
sg6
I7
sbsS'endwis'
p2110
(iDictEntry
dict_entry
p2111
(dp2112
g5
L156520L
sg6
I1
sbsS'morpholog'
p2113
(iDictEntry
dict_entry
p2114
(dp2115
g5
L298751L
sg6
I1
sbsS'pathway'
p2116
(iDictEntry
dict_entry
p2117
(dp2118
g5
L336084L
sg6
I2
sbsS'flang'
p2119
(iDictEntry
dict_entry
p2120
(dp2121
g5
L182651L
sg6
I2
sbsS'map'
p2122
(iDictEntry
dict_entry
p2123
(dp2124
g5
L267634L
sg6
I1
sbsS'product'
p2125
(iDictEntry
dict_entry
p2126
(dp2127
g5
L370396L
sg6
I15
sbsS'mat'
p2128
(iDictEntry
dict_entry
p2129
(dp2130
g5
L268492L
sg6
I2
sbsS'may'
p2131
(iDictEntry
dict_entry
p2132
(dp2133
g5
L272100L
sg6
I35
sbsS'use'
p2134
(iDictEntry
dict_entry
p2135
(dp2136
g5
L516034L
sg6
I93
sbsS'laundri'
p2137
(iDictEntry
dict_entry
p2138
(dp2139
g5
L247766L
sg6
I5
sbsS'cavit'
p2140
(iDictEntry
dict_entry
p2141
(dp2142
g5
L65948L
sg6
I1
sbsS'such'
p2143
(iDictEntry
dict_entry
p2144
(dp2145
g5
L462679L
sg6
I2
sbsS'suck'
p2146
(iDictEntry
dict_entry
p2147
(dp2148
g5
L462786L
sg6
I2
sbsS'digestor'
p2149
(iDictEntry
dict_entry
p2150
(dp2151
g5
L127271L
sg6
I1
sbsS'data'
p2152
(iDictEntry
dict_entry
p2153
(dp2154
g5
L111822L
sg6
I22
sbsS'grow'
p2155
(iDictEntry
dict_entry
p2156
(dp2157
g5
L207474L
sg6
I6
sbsS'bandag'
p2158
(iDictEntry
dict_entry
p2159
(dp2160
g5
L43490L
sg6
I2
sbsS'practic'
p2161
(iDictEntry
dict_entry
p2162
(dp2163
g5
L354556L
sg6
I1
sbsS'liquid'
p2164
(iDictEntry
dict_entry
p2165
(dp2166
g5
L256181L
sg6
I37
sbsS'joint'
p2167
(iDictEntry
dict_entry
p2168
(dp2169
g5
L244832L
sg6
I2
sbsS'secur'
p2170
(iDictEntry
dict_entry
p2171
(dp2172
g5
L418576L
sg6
I4
sbsS'122'
p2173
(iDictEntry
dict_entry
p2174
(dp2175
g5
L751L
sg6
I1
sbsS'fluent'
p2176
(iDictEntry
dict_entry
p2177
(dp2178
g5
L186079L
sg6
I2
sbsS'inform'
p2179
(iDictEntry
dict_entry
p2180
(dp2181
g5
L231496L
sg6
I6
sbsS'switch'
p2182
(iDictEntry
dict_entry
p2183
(dp2184
g5
L470246L
sg6
I2
sbsS'preced'
p2185
(iDictEntry
dict_entry
p2186
(dp2187
g5
L354733L
sg6
I1
sbsS'combin'
p2188
(iDictEntry
dict_entry
p2189
(dp2190
g5
L81396L
sg6
I18
sbsS'deposit'
p2191
(iDictEntry
dict_entry
p2192
(dp2193
g5
L118120L
sg6
I7
sbsS'lagoon'
p2194
(iDictEntry
dict_entry
p2195
(dp2196
g5
L246733L
sg6
I1
sbsS'basket'
p2197
(iDictEntry
dict_entry
p2198
(dp2199
g5
L45713L
sg6
I1
sbsS'polyhydroxyalkano'
p2200
(iDictEntry
dict_entry
p2201
(dp2202
g5
L347034L
sg6
I1
sbsS'purifi'
p2203
(iDictEntry
dict_entry
p2204
(dp2205
g5
L381575L
sg6
I11
sbsS'ordinari'
p2206
(iDictEntry
dict_entry
p2207
(dp2208
g5
L320022L
sg6
I1
sbsS'supercrit'
p2209
(iDictEntry
dict_entry
p2210
(dp2211
g5
L464470L
sg6
I2
sbsS'sulfat'
p2212
(iDictEntry
dict_entry
p2213
(dp2214
g5
L463872L
sg6
I1
sbsS'classifi'
p2215
(iDictEntry
dict_entry
p2216
(dp2217
g5
L74346L
sg6
I1
sbsS'microscop'
p2218
(iDictEntry
dict_entry
p2219
(dp2220
g5
L292462L
sg6
I2
sbsS'solubl'
p2221
(iDictEntry
dict_entry
p2222
(dp2223
g5
L445611L
sg6
I6
sbsS'peroxid'
p2224
(iDictEntry
dict_entry
p2225
(dp2226
g5
L339071L
sg6
I1
sbsS'equip'
p2227
(iDictEntry
dict_entry
p2228
(dp2229
g5
L161116L
sg6
I6
sbsS'cold'
p2230
(iDictEntry
dict_entry
p2231
(dp2232
g5
L79077L
sg6
I1
sbsS'still'
p2233
(iDictEntry
dict_entry
p2234
(dp2235
g5
L455379L
sg6
I3
sbsS'dynam'
p2236
(iDictEntry
dict_entry
p2237
(dp2238
g5
L143979L
sg6
I2
sbsS'conjunct'
p2239
(iDictEntry
dict_entry
p2240
(dp2241
g5
L95037L
sg6
I2
sbsS'group'
p2242
(iDictEntry
dict_entry
p2243
(dp2244
g5
L207157L
sg6
I6
sbsS'monitor'
p2245
(iDictEntry
dict_entry
p2246
(dp2247
g5
L298150L
sg6
I6
sbsS'passag'
p2248
(iDictEntry
dict_entry
p2249
(dp2250
g5
L335068L
sg6
I5
sbsS'platform'
p2251
(iDictEntry
dict_entry
p2252
(dp2253
g5
L344325L
sg6
I1
sbsS'main'
p2254
(iDictEntry
dict_entry
p2255
(dp2256
g5
L264372L
sg6
I3
sbsS'apron'
p2257
(iDictEntry
dict_entry
p2258
(dp2259
g5
L31083L
sg6
I2
sbsS'non'
p2260
(iDictEntry
dict_entry
p2261
(dp2262
g5
L306520L
sg6
I12
sbsS'dispens'
p2263
(iDictEntry
dict_entry
p2264
(dp2265
g5
L134312L
sg6
I3
sbsS'alkan'
p2266
(iDictEntry
dict_entry
p2267
(dp2268
g5
L15072L
sg6
I1
sbsS'initi'
p2269
(iDictEntry
dict_entry
p2270
(dp2271
g5
L231981L
sg6
I2
sbsS'sol'
p2272
(iDictEntry
dict_entry
p2273
(dp2274
g5
L444373L
sg6
I1
sbsS'underneath'
p2275
(iDictEntry
dict_entry
p2276
(dp2277
g5
L512427L
sg6
I1
sbsS'therebi'
p2278
(iDictEntry
dict_entry
p2279
(dp2280
g5
L489173L
sg6
I11
sbsS'bernal'
p2281
(iDictEntry
dict_entry
p2282
(dp2283
g5
L48034L
sg6
I1
sbsS'introduct'
p2284
(iDictEntry
dict_entry
p2285
(dp2286
g5
L239058L
sg6
I4
sbsS'term'
p2287
(iDictEntry
dict_entry
p2288
(dp2289
g5
L479173L
sg6
I1
sbsS'thermoset'
p2290
(iDictEntry
dict_entry
p2291
(dp2292
g5
L492381L
sg6
I1
sbsS'III'
p2293
(iDictEntry
dict_entry
p2294
(dp2295
g5
L219772L
sg6
I3
sbsS'drop'
p2296
(iDictEntry
dict_entry
p2297
(dp2298
g5
L142674L
sg6
I4
sbsS'separ'
p2299
(iDictEntry
dict_entry
p2300
(dp2301
g5
L421374L
sg6
I70
sbsS'ledg'
p2302
(iDictEntry
dict_entry
p2303
(dp2304
g5
L251970L
sg6
I1
sbsS'rock'
p2305
(iDictEntry
dict_entry
p2306
(dp2307
g5
L409904L
sg6
I1
sbsS'quarter'
p2308
(iDictEntry
dict_entry
p2309
(dp2310
g5
L384023L
sg6
I1
sbsS'domain'
p2311
(iDictEntry
dict_entry
p2312
(dp2313
g5
L139622L
sg6
I1
sbsS'replac'
p2314
(iDictEntry
dict_entry
p2315
(dp2316
g5
L402645L
sg6
I7
sbsS'individu'
p2317
(iDictEntry
dict_entry
p2318
(dp2319
g5
L230113L
sg6
I1
sbsS'continu'
p2320
(iDictEntry
dict_entry
p2321
(dp2322
g5
L103049L
sg6
I11
sbsS'unlock'
p2323
(iDictEntry
dict_entry
p2324
(dp2325
g5
L514048L
sg6
I1
sbsS'replay'
p2326
(iDictEntry
dict_entry
p2327
(dp2328
g5
L403014L
sg6
I1
sbsS'significantli'
p2329
(iDictEntry
dict_entry
p2330
(dp2331
g5
L434023L
sg6
I1
sbsS'distributor'
p2332
(iDictEntry
dict_entry
p2333
(dp2334
g5
L138486L
sg6
I3
sbsS'dispos'
p2335
(iDictEntry
dict_entry
p2336
(dp2337
g5
L135998L
sg6
I11
sbsS'agit'
p2338
(iDictEntry
dict_entry
p2339
(dp2340
g5
L11835L
sg6
I2
sbsS'accomplish'
p2341
(iDictEntry
dict_entry
p2342
(dp2343
g5
L3731L
sg6
I3
sbsS'space'
p2344
(iDictEntry
dict_entry
p2345
(dp2346
g5
L448680L
sg6
I13
sbsS'Key'
p2347
(iDictEntry
dict_entry
p2348
(dp2349
g5
L245510L
sg6
I3
sbsS'formula'
p2350
(iDictEntry
dict_entry
p2351
(dp2352
g5
L193531L
sg6
I1
sbsS'lubric'
p2353
(iDictEntry
dict_entry
p2354
(dp2355
g5
L262446L
sg6
I2
sbsS'sensor'
p2356
(iDictEntry
dict_entry
p2357
(dp2358
g5
L421165L
sg6
I3
sbsS'correct'
p2359
(iDictEntry
dict_entry
p2360
(dp2361
g5
L106921L
sg6
I2
sbsS'gram'
p2362
(iDictEntry
dict_entry
p2363
(dp2364
g5
L205948L
sg6
I1
sbsS'inwardli'
p2365
(iDictEntry
dict_entry
p2366
(dp2367
g5
L242312L
sg6
I3
sbsS'hull'
p2368
(iDictEntry
dict_entry
p2369
(dp2370
g5
L216784L
sg6
I1
sbsS'domest'
p2371
(iDictEntry
dict_entry
p2372
(dp2373
g5
L139673L
sg6
I3
sbsS'seventi'
p2374
(iDictEntry
dict_entry
p2375
(dp2376
g5
L427427L
sg6
I1
sbsS'vinyl'
p2377
(iDictEntry
dict_entry
p2378
(dp2379
g5
L528183L
sg6
I1
sbsS'card'
p2380
(iDictEntry
dict_entry
p2381
(dp2382
g5
L63120L
sg6
I2
sbsS'care'
p2383
(iDictEntry
dict_entry
p2384
(dp2385
g5
L63235L
sg6
I4
sbsS'torqu'
p2386
(iDictEntry
dict_entry
p2387
(dp2388
g5
L498450L
sg6
I1
sbsS'anammox'
p2389
(iDictEntry
dict_entry
p2390
(dp2391
g5
L21379L
sg6
I1
sbsS'prescrib'
p2392
(iDictEntry
dict_entry
p2393
(dp2394
g5
L357523L
sg6
I1
sbsS'frequenc'
p2395
(iDictEntry
dict_entry
p2396
(dp2397
g5
L195524L
sg6
I2
sbsS'motion'
p2398
(iDictEntry
dict_entry
p2399
(dp2400
g5
L298998L
sg6
I1
sbsS'turn'
p2401
(iDictEntry
dict_entry
p2402
(dp2403
g5
L509845L
sg6
I5
sbsS'place'
p2404
(iDictEntry
dict_entry
p2405
(dp2406
g5
L342466L
sg6
I12
sbsS'515'
p2407
(iDictEntry
dict_entry
p2408
(dp2409
g5
L2022L
sg6
I1
sbsS'first'
p2410
(iDictEntry
dict_entry
p2411
(dp2412
g5
L180013L
sg6
I35
sbsS'oper'
p2413
(iDictEntry
dict_entry
p2414
(dp2415
g5
L317597L
sg6
I25
sbsS'suspend'
p2416
(iDictEntry
dict_entry
p2417
(dp2418
g5
L469589L
sg6
I7
sbsS'directli'
p2419
(iDictEntry
dict_entry
p2420
(dp2421
g5
L129821L
sg6
I3
sbsS'withstand'
p2422
(iDictEntry
dict_entry
p2423
(dp2424
g5
L551134L
sg6
I1
sbsS'carri'
p2425
(iDictEntry
dict_entry
p2426
(dp2427
g5
L63436L
sg6
I7
sbsS'onc'
p2428
(iDictEntry
dict_entry
p2429
(dp2430
g5
L313414L
sg6
I1
sbsS'rins'
p2431
(iDictEntry
dict_entry
p2432
(dp2433
g5
L409448L
sg6
I4
sbsS'one'
p2434
(iDictEntry
dict_entry
p2435
(dp2436
g5
L313471L
sg6
I58
sbsS'nucleotid'
p2437
(iDictEntry
dict_entry
p2438
(dp2439
g5
L310081L
sg6
I1
sbsS'suspens'
p2440
(iDictEntry
dict_entry
p2441
(dp2442
g5
L469968L
sg6
I2
sbsS'textual'
p2443
(iDictEntry
dict_entry
p2444
(dp2445
g5
L480106L
sg6
I1
sbsS'pliant'
p2446
(iDictEntry
dict_entry
p2447
(dp2448
g5
L344603L
sg6
I1
sbsS'oppos'
p2449
(iDictEntry
dict_entry
p2450
(dp2451
g5
L318923L
sg6
I1
sbsS'ring'
p2452
(iDictEntry
dict_entry
p2453
(dp2454
g5
L409391L
sg6
I1
sbsS'open'
p2455
(iDictEntry
dict_entry
p2456
(dp2457
g5
L317115L
sg6
I9
sbsS'predefin'
p2458
(iDictEntry
dict_entry
p2459
(dp2460
g5
L355320L
sg6
I1
sbsS'size'
p2461
(iDictEntry
dict_entry
p2462
(dp2463
g5
L436522L
sg6
I13
sbsS'decontamin'
p2464
(iDictEntry
dict_entry
p2465
(dp2466
g5
L114456L
sg6
I1
sbsS'given'
p2467
(iDictEntry
dict_entry
p2468
(dp2469
g5
L205127L
sg6
I4
sbsS'sheet'
p2470
(iDictEntry
dict_entry
p2471
(dp2472
g5
L432008L
sg6
I1
sbsS'silent'
p2473
(iDictEntry
dict_entry
p2474
(dp2475
g5
L434080L
sg6
I1
sbsS'convent'
p2476
(iDictEntry
dict_entry
p2477
(dp2478
g5
L105338L
sg6
I6
sbsS'breed'
p2479
(iDictEntry
dict_entry
p2480
(dp2481
g5
L56122L
sg6
I5
sbsS'plastic'
p2482
(iDictEntry
dict_entry
p2483
(dp2484
g5
L343788L
sg6
I4
sbsS'PVA'
p2485
(iDictEntry
dict_entry
p2486
(dp2487
g5
L382922L
sg6
I1
sbsS'PVC'
p2488
(iDictEntry
dict_entry
p2489
(dp2490
g5
L383036L
sg6
I1
sbsS'draft'
p2491
(iDictEntry
dict_entry
p2492
(dp2493
g5
L140794L
sg6
I1
sbsS'fraction'
p2494
(iDictEntry
dict_entry
p2495
(dp2496
g5
L194542L
sg6
I4
sbsS'especi'
p2497
(iDictEntry
dict_entry
p2498
(dp2499
g5
L161780L
sg6
I6
sbsS'specifi'
p2500
(iDictEntry
dict_entry
p2501
(dp2502
g5
L450341L
sg6
I1
sbsS'enclos'
p2503
(iDictEntry
dict_entry
p2504
(dp2505
g5
L155378L
sg6
I2
sbsS'solubil'
p2506
(iDictEntry
dict_entry
p2507
(dp2508
g5
L445554L
sg6
I1
sbsS'floppi'
p2509
(iDictEntry
dict_entry
p2510
(dp2511
g5
L183648L
sg6
I1
sbsS'holder'
p2512
(iDictEntry
dict_entry
p2513
(dp2514
g5
L214376L
sg6
I1
sbsS'serv'
p2515
(iDictEntry
dict_entry
p2516
(dp2517
g5
L426364L
sg6
I3
sbsS'magnetographi'
p2518
(iDictEntry
dict_entry
p2519
(dp2520
g5
L264209L
sg6
I1
sbsS'rugged'
p2521
(iDictEntry
dict_entry
p2522
(dp2523
g5
L411213L
sg6
I1
sbsS'biohazard'
p2524
(iDictEntry
dict_entry
p2525
(dp2526
g5
L49343L
sg6
I1
sbsS'balanc'
p2527
(iDictEntry
dict_entry
p2528
(dp2529
g5
L43076L
sg6
I2
sbsS'posit'
p2530
(iDictEntry
dict_entry
p2531
(dp2532
g5
L351637L
sg6
I20
sbsS'extinguish'
p2533
(iDictEntry
dict_entry
p2534
(dp2535
g5
L167839L
sg6
I2
sbsS'pulver'
p2536
(iDictEntry
dict_entry
p2537
(dp2538
g5
L378935L
sg6
I1
sbsS'seri'
p2539
(iDictEntry
dict_entry
p2540
(dp2541
g5
L426027L
sg6
I6
sbsS'pre'
p2542
(iDictEntry
dict_entry
p2543
(dp2544
g5
L354615L
sg6
I2
sbsS'froth'
p2545
(iDictEntry
dict_entry
p2546
(dp2547
g5
L196439L
sg6
I1
sbsS'elev'
p2548
(iDictEntry
dict_entry
p2549
(dp2550
g5
L152027L
sg6
I1
sbsS'therefrom'
p2551
(iDictEntry
dict_entry
p2552
(dp2553
g5
L490273L
sg6
I3
sbsS'deliv'
p2554
(iDictEntry
dict_entry
p2555
(dp2556
g5
L116219L
sg6
I3
sbsS'slag'
p2557
(iDictEntry
dict_entry
p2558
(dp2559
g5
L437351L
sg6
I2
sbsS'engin'
p2560
(iDictEntry
dict_entry
p2561
(dp2562
g5
L157488L
sg6
I5
sbsS'techniqu'
p2563
(iDictEntry
dict_entry
p2564
(dp2565
g5
L477630L
sg6
I11
sbsS'moreov'
p2566
(iDictEntry
dict_entry
p2567
(dp2568
g5
L298694L
sg6
I1
sbsS'consortium'
p2569
(iDictEntry
dict_entry
p2570
(dp2571
g5
L97353L
sg6
I1
sbsS'forc'
p2572
(iDictEntry
dict_entry
p2573
(dp2574
g5
L190231L
sg6
I9
sbsS'micel'
p2575
(iDictEntry
dict_entry
p2576
(dp2577
g5
L289925L
sg6
I1
sbsS'take'
p2578
(iDictEntry
dict_entry
p2579
(dp2580
g5
L475550L
sg6
I4
sbsS'interior'
p2581
(iDictEntry
dict_entry
p2582
(dp2583
g5
L237370L
sg6
I5
sbsS'green'
p2584
(iDictEntry
dict_entry
p2585
(dp2586
g5
L206659L
sg6
I2
sbsS'blunt'
p2587
(iDictEntry
dict_entry
p2588
(dp2589
g5
L52853L
sg6
I1
sbsS'channel'
p2590
(iDictEntry
dict_entry
p2591
(dp2592
g5
L69667L
sg6
I8
sbsS'200'
p2593
(iDictEntry
dict_entry
p2594
(dp2595
g5
L1175L
sg6
I1
sbsS'202'
p2596
(iDictEntry
dict_entry
p2597
(dp2598
g5
L1283L
sg6
I1
sbsS'trace'
p2599
(iDictEntry
dict_entry
p2600
(dp2601
g5
L499142L
sg6
I1
sbsS'normal'
p2602
(iDictEntry
dict_entry
p2603
(dp2604
g5
L307351L
sg6
I6
sbsS'track'
p2605
(iDictEntry
dict_entry
p2606
(dp2607
g5
L499199L
sg6
I2
sbsS'frit'
p2608
(iDictEntry
dict_entry
p2609
(dp2610
g5
L195940L
sg6
I1
sbsS'compress'
p2611
(iDictEntry
dict_entry
p2612
(dp2613
g5
L88058L
sg6
I2
sbsS'pair'
p2614
(iDictEntry
dict_entry
p2615
(dp2616
g5
L329121L
sg6
I3
sbsS'synthesi'
p2617
(iDictEntry
dict_entry
p2618
(dp2619
g5
L470486L
sg6
I1
sbsS'nanofibr'
p2620
(iDictEntry
dict_entry
p2621
(dp2622
g5
L302677L
sg6
I1
sbsS'drive'
p2623
(iDictEntry
dict_entry
p2624
(dp2625
g5
L142141L
sg6
I5
sbsS'quantiti'
p2626
(iDictEntry
dict_entry
p2627
(dp2628
g5
L383599L
sg6
I8
sbsS'aerosol'
p2629
(iDictEntry
dict_entry
p2630
(dp2631
g5
L10771L
sg6
I1
sbsS'onium'
p2632
(iDictEntry
dict_entry
p2633
(dp2634
g5
L316672L
sg6
I1
sbsS'axi'
p2635
(iDictEntry
dict_entry
p2636
(dp2637
g5
L40285L
sg6
I5
sbsS'salt'
p2638
(iDictEntry
dict_entry
p2639
(dp2640
g5
L412888L
sg6
I7
sbsS'slope'
p2641
(iDictEntry
dict_entry
p2642
(dp2643
g5
L438090L
sg6
I1
sbsS'corneo'
p2644
(iDictEntry
dict_entry
p2645
(dp2646
g5
L106862L
sg6
I1
sbsS'biomix'
p2647
(iDictEntry
dict_entry
p2648
(dp2649
g5
L51235L
sg6
I1
sbsS'Sky'
p2650
(iDictEntry
dict_entry
p2651
(dp2652
g5
L437297L
sg6
I1
sbsS'friction'
p2653
(iDictEntry
dict_entry
p2654
(dp2655
g5
L195788L
sg6
I1
sbsS'fecal'
p2656
(iDictEntry
dict_entry
p2657
(dp2658
g5
L171994L
sg6
I1
sbsS'constitu'
p2659
(iDictEntry
dict_entry
p2660
(dp2661
g5
L97466L
sg6
I2
sbsS'buoyanc'
p2662
(iDictEntry
dict_entry
p2663
(dp2664
g5
L59378L
sg6
I1
sbsS'threshold'
p2665
(iDictEntry
dict_entry
p2666
(dp2667
g5
L494846L
sg6
I4
sbsS'Eye'
p2668
(iDictEntry
dict_entry
p2669
(dp2670
g5
L169260L
sg6
I1
sbsS'crane'
p2671
(iDictEntry
dict_entry
p2672
(dp2673
g5
L108928L
sg6
I1
sbsS'ground'
p2674
(iDictEntry
dict_entry
p2675
(dp2676
g5
L206943L
sg6
I2
sbsS'slot'
p2677
(iDictEntry
dict_entry
p2678
(dp2679
g5
L438147L
sg6
I2
sbsS'ratio'
p2680
(iDictEntry
dict_entry
p2681
(dp2682
g5
L386308L
sg6
I5
sbsS'fenc'
p2683
(iDictEntry
dict_entry
p2684
(dp2685
g5
L173038L
sg6
I1
sbsS'corrug'
p2686
(iDictEntry
dict_entry
p2687
(dp2688
g5
L107689L
sg6
I1
sbsS'activ'
p2689
(iDictEntry
dict_entry
p2690
(dp2691
g5
L6235L
sg6
I15
sbsS'pump'
p2692
(iDictEntry
dict_entry
p2693
(dp2694
g5
L379049L
sg6
I23
sbsS'helic'
p2695
(iDictEntry
dict_entry
p2696
(dp2697
g5
L211943L
sg6
I1
sbsS'wood'
p2698
(iDictEntry
dict_entry
p2699
(dp2700
g5
L551191L
sg6
I1
sbsS'analyz'
p2701
(iDictEntry
dict_entry
p2702
(dp2703
g5
L21322L
sg6
I1
sbsS'analyt'
p2704
(iDictEntry
dict_entry
p2705
(dp2706
g5
L21215L
sg6
I2
sbsS'monofila'
p2707
(iDictEntry
dict_entry
p2708
(dp2709
g5
L298580L
sg6
I1
sbsS'variou'
p2710
(iDictEntry
dict_entry
p2711
(dp2712
g5
L524501L
sg6
I5
sbsS'secondari'
p2713
(iDictEntry
dict_entry
p2714
(dp2715
g5
L418030L
sg6
I1
sbsS'dendrit'
p2716
(iDictEntry
dict_entry
p2717
(dp2718
g5
L116693L
sg6
I1
sbsS'outlet'
p2719
(iDictEntry
dict_entry
p2720
(dp2721
g5
L324147L
sg6
I17
sbsS'lighter'
p2722
(iDictEntry
dict_entry
p2723
(dp2724
g5
L253952L
sg6
I1
sbsS'dye'
p2725
(iDictEntry
dict_entry
p2726
(dp2727
g5
L143922L
sg6
I1
sbsS'slidabl'
p2728
(iDictEntry
dict_entry
p2729
(dp2730
g5
L437692L
sg6
I1
sbsS'requir'
p2731
(iDictEntry
dict_entry
p2732
(dp2733
g5
L403502L
sg6
I4
sbsS'gel'
p2734
(iDictEntry
dict_entry
p2735
(dp2736
g5
L200906L
sg6
I1
sbsS'intermitt'
p2737
(iDictEntry
dict_entry
p2738
(dp2739
g5
L237750L
sg6
I2
sbsS'yield'
p2740
(iDictEntry
dict_entry
p2741
(dp2742
g5
L552088L
sg6
I3
sbsS'circumfer'
p2743
(iDictEntry
dict_entry
p2744
(dp2745
g5
L73891L
sg6
I1
sbsS'sidewal'
p2746
(iDictEntry
dict_entry
p2747
(dp2748
g5
L433642L
sg6
I1
sbsS'anisotrop'
p2749
(iDictEntry
dict_entry
p2750
(dp2751
g5
L22643L
sg6
I1
sbsS'where'
p2752
(iDictEntry
dict_entry
p2753
(dp2754
g5
L547002L
sg6
I1
sbsS'burst'
p2755
(iDictEntry
dict_entry
p2756
(dp2757
g5
L59682L
sg6
I1
sbsS'bioreactor'
p2758
(iDictEntry
dict_entry
p2759
(dp2760
g5
L51286L
sg6
I3
sbsS'seat'
p2761
(iDictEntry
dict_entry
p2762
(dp2763
g5
L416431L
sg6
I1
sbsS'seal'
p2764
(iDictEntry
dict_entry
p2765
(dp2766
g5
L415621L
sg6
I7
sbsS'diver'
p2767
(iDictEntry
dict_entry
p2768
(dp2769
g5
L138700L
sg6
I2
sbsS'concern'
p2770
(iDictEntry
dict_entry
p2771
(dp2772
g5
L93022L
sg6
I2
sbsS'detect'
p2773
(iDictEntry
dict_entry
p2774
(dp2775
g5
L120617L
sg6
I12
sbsS'televis'
p2776
(iDictEntry
dict_entry
p2777
(dp2778
g5
L478416L
sg6
I2
sbsS'enough'
p2779
(iDictEntry
dict_entry
p2780
(dp2781
g5
L158371L
sg6
I1
sbsS'volatil'
p2782
(iDictEntry
dict_entry
p2783
(dp2784
g5
L529007L
sg6
I4
sbsS'import'
p2785
(iDictEntry
dict_entry
p2786
(dp2787
g5
L222541L
sg6
I1
sbsS'eros'
p2788
(iDictEntry
dict_entry
p2789
(dp2790
g5
L161566L
sg6
I2
sbsS'across'
p2791
(iDictEntry
dict_entry
p2792
(dp2793
g5
L5920L
sg6
I2
sbsS'FOR'
p2794
(iDictEntry
dict_entry
p2795
(dp2796
g5
L189228L
sg6
I19
sbsS'screen'
p2797
(iDictEntry
dict_entry
p2798
(dp2799
g5
L414800L
sg6
I5
sbsS'orific'
p2800
(iDictEntry
dict_entry
p2801
(dp2802
g5
L322497L
sg6
I4
sbsS'cycl'
p2803
(iDictEntry
dict_entry
p2804
(dp2805
g5
L110936L
sg6
I4
sbsS'sparg'
p2806
(iDictEntry
dict_entry
p2807
(dp2808
g5
L449372L
sg6
I3
sbsS'tub'
p2809
(iDictEntry
dict_entry
p2810
(dp2811
g5
L508914L
sg6
I3
sbsS'comb'
p2812
(iDictEntry
dict_entry
p2813
(dp2814
g5
L81236L
sg6
I1
sbsS'come'
p2815
(iDictEntry
dict_entry
p2816
(dp2817
g5
L82592L
sg6
I2
sbsS'reaction'
p2818
(iDictEntry
dict_entry
p2819
(dp2820
g5
L386804L
sg6
I6
sbsS'electrolyz'
p2821
(iDictEntry
dict_entry
p2822
(dp2823
g5
L150259L
sg6
I1
sbsS'mono'
p2824
(iDictEntry
dict_entry
p2825
(dp2826
g5
L298466L
sg6
I1
sbsS'region'
p2827
(iDictEntry
dict_entry
p2828
(dp2829
g5
L395451L
sg6
I10
sbsS'ruptur'
p2830
(iDictEntry
dict_entry
p2831
(dp2832
g5
L411384L
sg6
I4
sbsS'electrolyt'
p2833
(iDictEntry
dict_entry
p2834
(dp2835
g5
L150099L
sg6
I3
sbsS'contract'
p2836
(iDictEntry
dict_entry
p2837
(dp2838
g5
L103709L
sg6
I1
sbsS'improv'
p2839
(iDictEntry
dict_entry
p2840
(dp2841
g5
L222655L
sg6
I11
sbsS'hydrophob'
p2842
(iDictEntry
dict_entry
p2843
(dp2844
g5
L218727L
sg6
I2
sbsS'color'
p2845
(iDictEntry
dict_entry
p2846
(dp2847
g5
L80782L
sg6
I3
sbsS'biofiltr'
p2848
(iDictEntry
dict_entry
p2849
(dp2850
g5
L48927L
sg6
I2
sbsS'period'
p2851
(iDictEntry
dict_entry
p2852
(dp2853
g5
L338199L
sg6
I4
sbsS'biofilm'
p2854
(iDictEntry
dict_entry
p2855
(dp2856
g5
L48713L
sg6
I2
sbsS'exploit'
p2857
(iDictEntry
dict_entry
p2858
(dp2859
g5
L166979L
sg6
I1
sbsS'colon'
p2860
(iDictEntry
dict_entry
p2861
(dp2862
g5
L80725L
sg6
I1
sbsS'COD'
p2863
(iDictEntry
dict_entry
p2864
(dp2865
g5
L78585L
sg6
I2
sbsS'biofilt'
p2866
(iDictEntry
dict_entry
p2867
(dp2868
g5
L48820L
sg6
I2
sbsS'typic'
p2869
(iDictEntry
dict_entry
p2870
(dp2871
g5
L511582L
sg6
I5
sbsS'poli'
p2872
(iDictEntry
dict_entry
p2873
(dp2874
g5
L346473L
sg6
I1
sbsS'damag'
p2875
(iDictEntry
dict_entry
p2876
(dp2877
g5
L111664L
sg6
I3
sbsS'ultim'
p2878
(iDictEntry
dict_entry
p2879
(dp2880
g5
L511853L
sg6
I1
sbsS'clarif'
p2881
(iDictEntry
dict_entry
p2882
(dp2883
g5
L74062L
sg6
I1
sbsS'coupl'
p2884
(iDictEntry
dict_entry
p2885
(dp2886
g5
L108086L
sg6
I4
sbsS'invert'
p2887
(iDictEntry
dict_entry
p2888
(dp2889
g5
L241941L
sg6
I1
sbsS'breath'
p2890
(iDictEntry
dict_entry
p2891
(dp2892
g5
L56021L
sg6
I2
sbsS'fusibl'
p2893
(iDictEntry
dict_entry
p2894
(dp2895
g5
L197736L
sg6
I1
sbsS'reflex'
p2896
(iDictEntry
dict_entry
p2897
(dp2898
g5
L395063L
sg6
I1
sbsS'surplu'
p2899
(iDictEntry
dict_entry
p2900
(dp2901
g5
L469043L
sg6
I1
sbsS'500'
p2902
(iDictEntry
dict_entry
p2903
(dp2904
g5
L1915L
sg6
I2
sbsS'indirect'
p2905
(iDictEntry
dict_entry
p2906
(dp2907
g5
L230056L
sg6
I1
sbsS'resolut'
p2908
(iDictEntry
dict_entry
p2909
(dp2910
g5
L404994L
sg6
I1
sbsS'piezoelectr'
p2911
(iDictEntry
dict_entry
p2912
(dp2913
g5
L341708L
sg6
I1
sbsS'drum'
p2914
(iDictEntry
dict_entry
p2915
(dp2916
g5
L143227L
sg6
I1
sbsS'former'
p2917
(iDictEntry
dict_entry
p2918
(dp2919
g5
L193293L
sg6
I1
sbsS'sound'
p2920
(iDictEntry
dict_entry
p2921
(dp2922
g5
L447891L
sg6
I1
sbsS'shaft'
p2923
(iDictEntry
dict_entry
p2924
(dp2925
g5
L431252L
sg6
I3
sbsS'CO2'
p2926
(iDictEntry
dict_entry
p2927
(dp2928
g5
L77594L
sg6
I2
sbsS'crumb'
p2929
(iDictEntry
dict_entry
p2930
(dp2931
g5
L109787L
sg6
I1
sbsS'longitudin'
p2932
(iDictEntry
dict_entry
p2933
(dp2934
g5
L261116L
sg6
I1
sbsS'these'
p2935
(iDictEntry
dict_entry
p2936
(dp2937
g5
L492432L
sg6
I7
sbsS'mount'
p2938
(iDictEntry
dict_entry
p2939
(dp2940
g5
L299323L
sg6
I12
sbsS'facepl'
p2941
(iDictEntry
dict_entry
p2942
(dp2943
g5
L169761L
sg6
I1
sbsS'multifila'
p2944
(iDictEntry
dict_entry
p2945
(dp2946
g5
L301218L
sg6
I1
sbsS'polymer'
p2947
(iDictEntry
dict_entry
p2948
(dp2949
g5
L347621L
sg6
I2
sbsS'erad'
p2950
(iDictEntry
dict_entry
p2951
(dp2952
g5
L161490L
sg6
I1
sbsS'advantag'
p2953
(iDictEntry
dict_entry
p2954
(dp2955
g5
L9471L
sg6
I2
sbsS'sawdust'
p2956
(iDictEntry
dict_entry
p2957
(dp2958
g5
L414267L
sg6
I2
sbsS'soil'
p2959
(iDictEntry
dict_entry
p2960
(dp2961
g5
L444242L
sg6
I2
sbsS'henc'
p2962
(iDictEntry
dict_entry
p2963
(dp2964
g5
L212114L
sg6
I1
sbsS'chromat'
p2965
(iDictEntry
dict_entry
p2966
(dp2967
g5
L72960L
sg6
I1
sbsS'AIR'
p2968
(iDictEntry
dict_entry
p2969
(dp2970
g5
Nsg6
NsbsS'cluster'
p2971
(iDictEntry
dict_entry
p2972
(dp2973
g5
L77537L
sg6
I1
sbsS'bias'
p2974
(iDictEntry
dict_entry
p2975
(dp2976
g5
L48148L
sg6
I1
sbsS'ambient'
p2977
(iDictEntry
dict_entry
p2978
(dp2979
g5
L19108L
sg6
I1
sbsS'protein'
p2980
(iDictEntry
dict_entry
p2981
(dp2982
g5
L373360L
sg6
I4
sbsS'pas'
p2983
(iDictEntry
dict_entry
p2984
(dp2985
g5
L334269L
sg6
I15
sbsS'develop'
p2986
(iDictEntry
dict_entry
p2987
(dp2988
g5
L122093L
sg6
I1
sbsS'nanotub'
p2989
(iDictEntry
dict_entry
p2990
(dp2991
g5
L302728L
sg6
I1
sbsS'medic'
p2992
(iDictEntry
dict_entry
p2993
(dp2994
g5
L276624L
sg6
I3
sbsS'transloc'
p2995
(iDictEntry
dict_entry
p2996
(dp2997
g5
L499987L
sg6
I1
sbsS'econom'
p2998
(iDictEntry
dict_entry
p2999
(dp3000
g5
L144841L
sg6
I2
sbsS'same'
p3001
(iDictEntry
dict_entry
p3002
(dp3003
g5
L413376L
sg6
I1
sbsS'audibl'
p3004
(iDictEntry
dict_entry
p3005
(dp3006
g5
L38917L
sg6
I1
sbsS'pad'
p3007
(iDictEntry
dict_entry
p3008
(dp3009
g5
L328875L
sg6
I2
sbsS'ecolog'
p3010
(iDictEntry
dict_entry
p3011
(dp3012
g5
L144784L
sg6
I1
sbsS'document'
p3013
(iDictEntry
dict_entry
p3014
(dp3015
g5
L139546L
sg6
I1
sbsS'exhaust'
p3016
(iDictEntry
dict_entry
p3017
(dp3018
g5
L165588L
sg6
I6
sbsS'oil'
p3019
(iDictEntry
dict_entry
p3020
(dp3021
g5
Nsg6
NsbsS'nest'
p3022
(iDictEntry
dict_entry
p3023
(dp3024
g5
L304366L
sg6
I1
sbsS'assist'
p3025
(iDictEntry
dict_entry
p3026
(dp3027
g5
L35972L
sg6
I3
sbsS'quicklim'
p3028
(iDictEntry
dict_entry
p3029
(dp3030
g5
L384360L
sg6
I1
sbsS'driven'
p3031
(iDictEntry
dict_entry
p3032
(dp3033
g5
L142407L
sg6
I5
sbsS'capabl'
p3034
(iDictEntry
dict_entry
p3035
(dp3036
g5
L61152L
sg6
I6
sbsS'fruit'
p3037
(iDictEntry
dict_entry
p3038
(dp3039
g5
L196553L
sg6
I1
sbsS'mani'
p3040
(iDictEntry
dict_entry
p3041
(dp3042
g5
L266750L
sg6
I1
sbsS'layup'
p3043
(iDictEntry
dict_entry
p3044
(dp3045
g5
L248500L
sg6
I1
sbsS'drain'
p3046
(iDictEntry
dict_entry
p3047
(dp3048
g5
L140851L
sg6
I4
sbsS'moder'
p3049
(iDictEntry
dict_entry
p3050
(dp3051
g5
L296993L
sg6
I1
sbsS'charger'
p3052
(iDictEntry
dict_entry
p3053
(dp3054
g5
L71180L
sg6
I1
sbsS'without'
p3055
(iDictEntry
dict_entry
p3056
(dp3057
g5
L550595L
sg6
I10
sbsS'keyfram'
p3058
(iDictEntry
dict_entry
p3059
(dp3060
g5
L245781L
sg6
I1
sbsS'admix'
p3061
(iDictEntry
dict_entry
p3062
(dp3063
g5
L9130L
sg6
I1
sbsS'model'
p3064
(iDictEntry
dict_entry
p3065
(dp3066
g5
L296646L
sg6
I5
sbsS'modem'
p3067
(iDictEntry
dict_entry
p3068
(dp3069
g5
L296936L
sg6
I1
sbsS'dimension'
p3070
(iDictEntry
dict_entry
p3071
(dp3072
g5
L127897L
sg6
I3
sbsS'clog'
p3073
(iDictEntry
dict_entry
p3074
(dp3075
g5
L76374L
sg6
I3
sbsS'212'
p3076
(iDictEntry
dict_entry
p3077
(dp3078
g5
L1397L
sg6
I1
sbsS'livestock'
p3079
(iDictEntry
dict_entry
p3080
(dp3081
g5
L258962L
sg6
I1
sbsS'execut'
p3082
(iDictEntry
dict_entry
p3083
(dp3084
g5
L165365L
sg6
I3
sbsS'when'
p3085
(iDictEntry
dict_entry
p3086
(dp3087
g5
L546787L
sg6
I3
sbsS'geotherm'
p3088
(iDictEntry
dict_entry
p3089
(dp3090
g5
L204836L
sg6
I1
sbsS'rest'
p3091
(iDictEntry
dict_entry
p3092
(dp3093
g5
L406127L
sg6
I1
sbsS'kill'
p3094
(iDictEntry
dict_entry
p3095
(dp3096
g5
L245840L
sg6
I5
sbsS'sprayer'
p3097
(iDictEntry
dict_entry
p3098
(dp3099
g5
L452473L
sg6
I1
sbsS'aspect'
p3100
(iDictEntry
dict_entry
p3101
(dp3102
g5
L34931L
sg6
I6
sbsS'touch'
p3103
(iDictEntry
dict_entry
p3104
(dp3105
g5
L498665L
sg6
I1
sbsS'polish'
p3106
(iDictEntry
dict_entry
p3107
(dp3108
g5
L346524L
sg6
I1
sbsS'speed'
p3109
(iDictEntry
dict_entry
p3110
(dp3111
g5
L450584L
sg6
I6
sbsS'polysilazan'
p3112
(iDictEntry
dict_entry
p3113
(dp3114
g5
L347728L
sg6
I1
sbsS'concentr'
p3115
(iDictEntry
dict_entry
p3116
(dp3117
g5
L92150L
sg6
I15
sbsS'miscellan'
p3118
(iDictEntry
dict_entry
p3119
(dp3120
g5
L293489L
sg6
I3
sbsS'littl'
p3121
(iDictEntry
dict_entry
p3122
(dp3123
g5
L258695L
sg6
I1
sbsS'identif'
p3124
(iDictEntry
dict_entry
p3125
(dp3126
g5
L219257L
sg6
I2
sbsS'silic'
p3127
(iDictEntry
dict_entry
p3128
(dp3129
g5
L434137L
sg6
I2
sbsS'hing'
p3130
(iDictEntry
dict_entry
p3131
(dp3132
g5
L214212L
sg6
I1
sbsS'blob'
p3133
(iDictEntry
dict_entry
p3134
(dp3135
g5
L52275L
sg6
I1
sbsS'role'
p3136
(iDictEntry
dict_entry
p3137
(dp3138
g5
L409980L
sg6
I1
sbsS'downwardli'
p3139
(iDictEntry
dict_entry
p3140
(dp3141
g5
L140687L
sg6
I2
sbsS'heavier'
p3142
(iDictEntry
dict_entry
p3143
(dp3144
g5
L211436L
sg6
I1
sbsS'real'
p3145
(iDictEntry
dict_entry
p3146
(dp3147
g5
L388219L
sg6
I2
sbsS'around'
p3148
(iDictEntry
dict_entry
p3149
(dp3150
g5
L33332L
sg6
I3
sbsS'read'
p3151
(iDictEntry
dict_entry
p3152
(dp3153
g5
L388008L
sg6
I1
sbsS'specimen'
p3154
(iDictEntry
dict_entry
p3155
(dp3156
g5
L450400L
sg6
I1
sbsS'mow'
p3157
(iDictEntry
dict_entry
p3158
(dp3159
g5
L300729L
sg6
I1
sbsS'sump'
p3160
(iDictEntry
dict_entry
p3161
(dp3162
g5
L464245L
sg6
I1
sbsS'retract'
p3163
(iDictEntry
dict_entry
p3164
(dp3165
g5
L407928L
sg6
I1
sbsS'temperatur'
p3166
(iDictEntry
dict_entry
p3167
(dp3168
g5
L478524L
sg6
I8
sbsS'traffic'
p3169
(iDictEntry
dict_entry
p3170
(dp3171
g5
L499329L
sg6
I1
sbsS'dock'
p3172
(iDictEntry
dict_entry
p3173
(dp3174
g5
L139489L
sg6
I1
sbsS'vacuum'
p3175
(iDictEntry
dict_entry
p3176
(dp3177
g5
L522673L
sg6
I3
sbsS'world'
p3178
(iDictEntry
dict_entry
p3179
(dp3180
g5
L551640L
sg6
I1
sbsS'rear'
p3181
(iDictEntry
dict_entry
p3182
(dp3183
g5
L388518L
sg6
I7
sbsS'distil'
p3184
(iDictEntry
dict_entry
p3185
(dp3186
g5
L137692L
sg6
I2
sbsS'clad'
p3187
(iDictEntry
dict_entry
p3188
(dp3189
g5
L74005L
sg6
I1
sbsS'stationari'
p3190
(iDictEntry
dict_entry
p3191
(dp3192
g5
L453910L
sg6
I1
sbsS'shutter'
p3193
(iDictEntry
dict_entry
p3194
(dp3195
g5
L432610L
sg6
I1
sbsS'chamber'
p3196
(iDictEntry
dict_entry
p3197
(dp3198
g5
L68225L
sg6
I19
sbsS'benefit'
p3199
(iDictEntry
dict_entry
p3200
(dp3201
g5
L47927L
sg6
I2
sbsS'either'
p3202
(iDictEntry
dict_entry
p3203
(dp3204
g5
L147605L
sg6
I6
sbsS'clay'
p3205
(iDictEntry
dict_entry
p3206
(dp3207
g5
L74403L
sg6
I2
sbsS'output'
p3208
(iDictEntry
dict_entry
p3209
(dp3210
g5
L325050L
sg6
I9
sbsS'downward'
p3211
(iDictEntry
dict_entry
p3212
(dp3213
g5
L140580L
sg6
I2
sbsS'manag'
p3214
(iDictEntry
dict_entry
p3215
(dp3216
g5
L266452L
sg6
I5
sbsS'nucleic'
p3217
(iDictEntry
dict_entry
p3218
(dp3219
g5
L309879L
sg6
I2
sbsS'seepag'
p3220
(iDictEntry
dict_entry
p3221
(dp3222
g5
L418903L
sg6
I1
sbsS'New'
p3223
(iDictEntry
dict_entry
p3224
(dp3225
g5
L304822L
sg6
I8
sbsS'constitut'
p3226
(iDictEntry
dict_entry
p3227
(dp3228
g5
L97573L
sg6
I1
sbsS'freez'
p3229
(iDictEntry
dict_entry
p3230
(dp3231
g5
L195471L
sg6
I1
sbsS'slice'
p3232
(iDictEntry
dict_entry
p3233
(dp3234
g5
L437572L
sg6
I1
sbsS'easili'
p3235
(iDictEntry
dict_entry
p3236
(dp3237
g5
L144359L
sg6
I8
sbsS'tube'
p3238
(iDictEntry
dict_entry
p3239
(dp3240
g5
L509069L
sg6
I8
sbsS'evolv'
p3241
(iDictEntry
dict_entry
p3242
(dp3243
g5
L163780L
sg6
I1
sbsS'exit'
p3244
(iDictEntry
dict_entry
p3245
(dp3246
g5
L166227L
sg6
I6
sbsS'inject'
p3247
(iDictEntry
dict_entry
p3248
(dp3249
g5
L232088L
sg6
I7
sbsS'cylindr'
p3250
(iDictEntry
dict_entry
p3251
(dp3252
g5
L111316L
sg6
I3
sbsS'evapor'
p3253
(iDictEntry
dict_entry
p3254
(dp3255
g5
L163175L
sg6
I3
sbsS'overli'
p3256
(iDictEntry
dict_entry
p3257
(dp3258
g5
L326336L
sg6
I3
sbsS'refer'
p3259
(iDictEntry
dict_entry
p3260
(dp3261
g5
L394358L
sg6
I9
sbsS'aquif'
p3262
(iDictEntry
dict_entry
p3263
(dp3264
g5
L32416L
sg6
I2
sbsS'power'
p3265
(iDictEntry
dict_entry
p3266
(dp3267
g5
L353828L
sg6
I13
sbsS'inspect'
p3268
(iDictEntry
dict_entry
p3269
(dp3270
g5
L235544L
sg6
I2
sbsS'cephalogram'
p3271
(iDictEntry
dict_entry
p3272
(dp3273
g5
L67557L
sg6
I1
sbsS'1933'
p3274
(iDictEntry
dict_entry
p3275
(dp3276
g5
L1118L
sg6
I1
sbsS'broken'
p3277
(iDictEntry
dict_entry
p3278
(dp3279
g5
L56556L
sg6
I2
sbsS'flotat'
p3280
(iDictEntry
dict_entry
p3281
(dp3282
g5
L183705L
sg6
I3
sbsS'glycerol'
p3283
(iDictEntry
dict_entry
p3284
(dp3285
g5
L205515L
sg6
I1
sbsS'chlorin'
p3286
(iDictEntry
dict_entry
p3287
(dp3288
g5
L72704L
sg6
I4
sbsS'fulli'
p3289
(iDictEntry
dict_entry
p3290
(dp3291
g5
L196885L
sg6
I2
sbsS'strainer'
p3292
(iDictEntry
dict_entry
p3293
(dp3294
g5
L457213L
sg6
I1
sbsS'hereinaft'
p3295
(iDictEntry
dict_entry
p3296
(dp3297
g5
L212488L
sg6
I1
sbsS'comparison'
p3298
(iDictEntry
dict_entry
p3299
(dp3300
g5
L84148L
sg6
I1
sbsS'central'
p3301
(iDictEntry
dict_entry
p3302
(dp3303
g5
L66761L
sg6
I7
sbsS'antibodi'
p3304
(iDictEntry
dict_entry
p3305
(dp3306
g5
L24011L
sg6
I2
sbsS'mixer'
p3307
(iDictEntry
dict_entry
p3308
(dp3309
g5
L295262L
sg6
I1
sbsS'taxol'
p3310
(iDictEntry
dict_entry
p3311
(dp3312
g5
L477522L
sg6
I1
sbsS'degre'
p3313
(iDictEntry
dict_entry
p3314
(dp3315
g5
L115721L
sg6
I2
sbsS'agglomer'
p3316
(iDictEntry
dict_entry
p3317
(dp3318
g5
L11530L
sg6
I2
sbsS'stand'
p3319
(iDictEntry
dict_entry
p3320
(dp3321
g5
L453147L
sg6
I1
sbsS'neighbor'
p3322
(iDictEntry
dict_entry
p3323
(dp3324
g5
L304200L
sg6
I2
sbsS'act'
p3325
(iDictEntry
dict_entry
p3326
(dp3327
g5
L6027L
sg6
I2
sbsS'industri'
p3328
(iDictEntry
dict_entry
p3329
(dp3330
g5
L230334L
sg6
I13
sbsS'mean'
p3331
(iDictEntry
dict_entry
p3332
(dp3333
g5
L273988L
sg6
I35
sbsS'processor'
p3334
(iDictEntry
dict_entry
p3335
(dp3336
g5
L368258L
sg6
I4
sbsS'effici'
p3337
(iDictEntry
dict_entry
p3338
(dp3339
g5
L146226L
sg6
I11
sbsS'strip'
p3340
(iDictEntry
dict_entry
p3341
(dp3342
g5
L458532L
sg6
I3
sbsS'pivot'
p3343
(iDictEntry
dict_entry
p3344
(dp3345
g5
L342359L
sg6
I2
sbsS'nitrit'
p3346
(iDictEntry
dict_entry
p3347
(dp3348
g5
L306016L
sg6
I1
sbsS'acetogen'
p3349
(iDictEntry
dict_entry
p3350
(dp3351
g5
L4970L
sg6
I1
sbsS'area'
p3352
(iDictEntry
dict_entry
p3353
(dp3354
g5
L32635L
sg6
I12
sbsS'there'
p3355
(iDictEntry
dict_entry
p3356
(dp3357
g5
L488742L
sg6
I5
sbsS'start'
p3358
(iDictEntry
dict_entry
p3359
(dp3360
g5
L453267L
sg6
I1
sbsS'nitrif'
p3361
(iDictEntry
dict_entry
p3362
(dp3363
g5
L305748L
sg6
I4
sbsS'outflow'
p3364
(iDictEntry
dict_entry
p3365
(dp3366
g5
L324089L
sg6
I1
sbsS'interfac'
p3367
(iDictEntry
dict_entry
p3368
(dp3369
g5
L237208L
sg6
I3
sbsS'low'
p3370
(iDictEntry
dict_entry
p3371
(dp3372
g5
L261230L
sg6
I12
sbsS'foam'
p3373
(iDictEntry
dict_entry
p3374
(dp3375
g5
L188086L
sg6
I7
sbsS'leach'
p3376
(iDictEntry
dict_entry
p3377
(dp3378
g5
L248557L
sg6
I1
sbsS'hard'
p3379
(iDictEntry
dict_entry
p3380
(dp3381
g5
L209642L
sg6
I2
sbsS'cultiv'
p3382
(iDictEntry
dict_entry
p3383
(dp3384
g5
L110141L
sg6
I3
sbsS'bundl'
p3385
(iDictEntry
dict_entry
p3386
(dp3387
g5
L59264L
sg6
I1
sbsS'regard'
p3388
(iDictEntry
dict_entry
p3389
(dp3390
g5
L395220L
sg6
I1
sbsS'cabinet'
p3391
(iDictEntry
dict_entry
p3392
(dp3393
g5
L60012L
sg6
I1
sbsS'diffus'
p3394
(iDictEntry
dict_entry
p3395
(dp3396
g5
L126270L
sg6
I9
sbsS'baffl'
p3397
(iDictEntry
dict_entry
p3398
(dp3399
g5
L42803L
sg6
I4
sbsS'micellar'
p3400
(iDictEntry
dict_entry
p3401
(dp3402
g5
L289982L
sg6
I2
sbsS'pull'
p3403
(iDictEntry
dict_entry
p3404
(dp3405
g5
L378731L
sg6
I1
sbsS'dirti'
p3406
(iDictEntry
dict_entry
p3407
(dp3408
g5
L130038L
sg6
I2
sbsS'possibl'
p3409
(iDictEntry
dict_entry
p3410
(dp3411
g5
L352752L
sg6
I3
sbsS'capatur'
p3412
(iDictEntry
dict_entry
p3413
(dp3414
g5
L61532L
sg6
I1
sbsS'markedli'
p3415
(iDictEntry
dict_entry
p3416
(dp3417
g5
L267748L
sg6
I1
sbsS'grasp'
p3418
(iDictEntry
dict_entry
p3419
(dp3420
g5
L206171L
sg6
I1
sbsS'pulp'
p3421
(iDictEntry
dict_entry
p3422
(dp3423
g5
L378788L
sg6
I2
sbsS'600'
p3424
(iDictEntry
dict_entry
p3425
(dp3426
g5
L2136L
sg6
I1
sbsS'creat'
p3427
(iDictEntry
dict_entry
p3428
(dp3429
g5
L109039L
sg6
I4
sbsS'horticultur'
p3430
(iDictEntry
dict_entry
p3431
(dp3432
g5
L215589L
sg6
I1
sbsS'certain'
p3433
(iDictEntry
dict_entry
p3434
(dp3435
g5
L67901L
sg6
I5
sbsS'deep'
p3436
(iDictEntry
dict_entry
p3437
(dp3438
g5
L114513L
sg6
I1
sbsS'cultur'
p3439
(iDictEntry
dict_entry
p3440
(dp3441
g5
L110296L
sg6
I4
sbsS'encompass'
p3442
(iDictEntry
dict_entry
p3443
(dp3444
g5
L155722L
sg6
I1
sbsS'proport'
p3445
(iDictEntry
dict_entry
p3446
(dp3447
g5
L372833L
sg6
I2
sbsS'film'
p3448
(iDictEntry
dict_entry
p3449
(dp3450
g5
L174775L
sg6
I5
sbsS'fill'
p3451
(iDictEntry
dict_entry
p3452
(dp3453
g5
L174348L
sg6
I7
sbsS'jacket'
p3454
(iDictEntry
dict_entry
p3455
(dp3456
g5
L244349L
sg6
I2
sbsS'pumic'
p3457
(iDictEntry
dict_entry
p3458
(dp3459
g5
L378992L
sg6
I1
sbsS'reduct'
p3460
(iDictEntry
dict_entry
p3461
(dp3462
g5
L394041L
sg6
I6
sbsS'tight'
p3463
(iDictEntry
dict_entry
p3464
(dp3465
g5
L495972L
sg6
I1
sbsS'cleanup'
p3466
(iDictEntry
dict_entry
p3467
(dp3468
g5
L76045L
sg6
I1
sbsS'spatial'
p3469
(iDictEntry
dict_entry
p3470
(dp3471
g5
L449530L
sg6
I1
sbsS'floccul'
p3472
(iDictEntry
dict_entry
p3473
(dp3474
g5
L183541L
sg6
I2
sbsS'correl'
p3475
(iDictEntry
dict_entry
p3476
(dp3477
g5
L107027L
sg6
I1
sbsS'polar'
p3478
(iDictEntry
dict_entry
p3479
(dp3480
g5
L346361L
sg6
I2
sbsS'bioga'
p3481
(iDictEntry
dict_entry
p3482
(dp3483
g5
L49072L
sg6
I4
sbsS'sequenc'
p3484
(iDictEntry
dict_entry
p3485
(dp3486
g5
L425593L
sg6
I4
sbsS'peat'
p3487
(iDictEntry
dict_entry
p3488
(dp3489
g5
L336593L
sg6
I1
sbsS'time'
p3490
(iDictEntry
dict_entry
p3491
(dp3492
g5
L496105L
sg6
I16
sbsS'multidimension'
p3493
(iDictEntry
dict_entry
p3494
(dp3495
g5
L301159L
sg6
I1
sbsS'pool'
p3496
(iDictEntry
dict_entry
p3497
(dp3498
g5
L348194L
sg6
I2
sbsS'reduc'
p3499
(iDictEntry
dict_entry
p3500
(dp3501
g5
L393178L
sg6
I16
sbsS'groov'
p3502
(iDictEntry
dict_entry
p3503
(dp3504
g5
L206836L
sg6
I2
sbsS'mast'
p3505
(iDictEntry
dict_entry
p3506
(dp3507
g5
L268321L
sg6
I2
sbsS'mass'
p3508
(iDictEntry
dict_entry
p3509
(dp3510
g5
L267805L
sg6
I8
sbsS'potenti'
p3511
(iDictEntry
dict_entry
p3512
(dp3513
g5
L353329L
sg6
I3
sbsS'escap'
p3514
(iDictEntry
dict_entry
p3515
(dp3516
g5
L161673L
sg6
I2
sbsS'degrad'
p3517
(iDictEntry
dict_entry
p3518
(dp3519
g5
L115664L
sg6
I1
sbsS'microfluid'
p3520
(iDictEntry
dict_entry
p3521
(dp3522
g5
L291504L
sg6
I1
sbsS'assimil'
p3523
(iDictEntry
dict_entry
p3524
(dp3525
g5
L35915L
sg6
I1
sbsS'sulphid'
p3526
(iDictEntry
dict_entry
p3527
(dp3528
g5
L464188L
sg6
I1
sbsS'degas'
p3529
(iDictEntry
dict_entry
p3530
(dp3531
g5
L115607L
sg6
I1
sbsS'lack'
p3532
(iDictEntry
dict_entry
p3533
(dp3534
g5
L246383L
sg6
I1
sbsS'disc'
p3535
(iDictEntry
dict_entry
p3536
(dp3537
g5
L130202L
sg6
I3
sbsS'abil'
p3538
(iDictEntry
dict_entry
p3539
(dp3540
g5
L2368L
sg6
I4
sbsS'dish'
p3541
(iDictEntry
dict_entry
p3542
(dp3543
g5
L133623L
sg6
I1
sbsS'follow'
p3544
(iDictEntry
dict_entry
p3545
(dp3546
g5
L188649L
sg6
I8
sbsS'disk'
p3547
(iDictEntry
dict_entry
p3548
(dp3549
g5
L134035L
sg6
I3
sbsS'semiconductor'
p3550
(iDictEntry
dict_entry
p3551
(dp3552
g5
L420535L
sg6
I3
sbsS'pliabl'
p3553
(iDictEntry
dict_entry
p3554
(dp3555
g5
L344546L
sg6
I1
sbsS'articl'
p3556
(iDictEntry
dict_entry
p3557
(dp3558
g5
L34276L
sg6
I8
sbsS'tail'
p3559
(iDictEntry
dict_entry
p3560
(dp3561
g5
L475443L
sg6
I2
sbsS'program'
p3562
(iDictEntry
dict_entry
p3563
(dp3564
g5
L371218L
sg6
I4
sbsS'introduc'
p3565
(iDictEntry
dict_entry
p3566
(dp3567
g5
L238368L
sg6
I13
sbsS'case'
p3568
(iDictEntry
dict_entry
p3569
(dp3570
g5
L64632L
sg6
I8
sbsS'liter'
p3571
(iDictEntry
dict_entry
p3572
(dp3573
g5
L258531L
sg6
I2
sbsS'capillari'
p3574
(iDictEntry
dict_entry
p3575
(dp3576
g5
L61589L
sg6
I2
sbsS'biosludg'
p3577
(iDictEntry
dict_entry
p3578
(dp3579
g5
L51458L
sg6
I1
sbsS'util'
p3580
(iDictEntry
dict_entry
p3581
(dp3582
g5
L521873L
sg6
I14
sbsS'candid'
p3583
(iDictEntry
dict_entry
p3584
(dp3585
g5
L60714L
sg6
I4
sbsS'mechan'
p3586
(iDictEntry
dict_entry
p3587
(dp3588
g5
L276253L
sg6
I7
sbsS'fall'
p3589
(iDictEntry
dict_entry
p3590
(dp3591
g5
L170470L
sg6
I5
sbsS'bubbler'
p3592
(iDictEntry
dict_entry
p3593
(dp3594
g5
L58580L
sg6
I1
sbsS'condition'
p3595
(iDictEntry
dict_entry
p3596
(dp3597
g5
L94032L
sg6
I1
sbsS'signific'
p3598
(iDictEntry
dict_entry
p3599
(dp3600
g5
L433966L
sg6
I1
sbsS'sand'
p3601
(iDictEntry
dict_entry
p3602
(dp3603
g5
L413555L
sg6
I4
sbsS'adjust'
p3604
(iDictEntry
dict_entry
p3605
(dp3606
g5
L8589L
sg6
I7
sbsS'small'
p3607
(iDictEntry
dict_entry
p3608
(dp3609
g5
L442594L
sg6
I8
sbsS'imperm'
p3610
(iDictEntry
dict_entry
p3611
(dp3612
g5
L221978L
sg6
I1
sbsS'braid'
p3613
(iDictEntry
dict_entry
p3614
(dp3615
g5
L55819L
sg6
I1
sbsS'pul'
p3616
(iDictEntry
dict_entry
p3617
(dp3618
g5
L378674L
sg6
I1
sbsS'denitifr'
p3619
(iDictEntry
dict_entry
p3620
(dp3621
g5
L116807L
sg6
I1
sbsS'throughpassag'
p3622
(iDictEntry
dict_entry
p3623
(dp3624
g5
L495434L
sg6
I1
sbsS'past'
p3625
(iDictEntry
dict_entry
p3626
(dp3627
g5
L335491L
sg6
I1
sbsS'radiograph'
p3628
(iDictEntry
dict_entry
p3629
(dp3630
g5
L384887L
sg6
I1
sbsS'biolog'
p3631
(iDictEntry
dict_entry
p3632
(dp3633
g5
L49457L
sg6
I23
sbsS'pressur'
p3634
(iDictEntry
dict_entry
p3635
(dp3636
g5
L360753L
sg6
I27
sbsS'design'
p3637
(iDictEntry
dict_entry
p3638
(dp3639
g5
L119388L
sg6
I9
sbsS'further'
p3640
(iDictEntry
dict_entry
p3641
(dp3642
g5
L197568L
sg6
I2
sbsS'hamper'
p3643
(iDictEntry
dict_entry
p3644
(dp3645
g5
L208613L
sg6
I1
sbsS'excit'
p3646
(iDictEntry
dict_entry
p3647
(dp3648
g5
L165306L
sg6
I1
sbsS'sub'
p3649
(iDictEntry
dict_entry
p3650
(dp3651
g5
L459527L
sg6
I7
sbsS'nano'
p3652
(iDictEntry
dict_entry
p3653
(dp3654
g5
L302392L
sg6
I2
sbsS'section'
p3655
(iDictEntry
dict_entry
p3656
(dp3657
g5
L418087L
sg6
I9
sbsS'dirt'
p3658
(iDictEntry
dict_entry
p3659
(dp3660
g5
L129981L
sg6
I1
sbsS'abl'
p3661
(iDictEntry
dict_entry
p3662
(dp3663
g5
L2579L
sg6
I1
sbsS'delet'
p3664
(iDictEntry
dict_entry
p3665
(dp3666
g5
L116105L
sg6
I1
sbsS'version'
p3667
(iDictEntry
dict_entry
p3668
(dp3669
g5
L525500L
sg6
I2
sbsS'ozon'
p3670
(iDictEntry
dict_entry
p3671
(dp3672
g5
L328111L
sg6
I4
sbsS'intersect'
p3673
(iDictEntry
dict_entry
p3674
(dp3675
g5
L238037L
sg6
I2
sbsS'sup'
p3676
(iDictEntry
dict_entry
p3677
(dp3678
g5
L464302L
sg6
I2
sbsS'consecut'
p3679
(iDictEntry
dict_entry
p3680
(dp3681
g5
L96440L
sg6
I1
sbsS'method'
p3682
(iDictEntry
dict_entry
p3683
(dp3684
g5
L281996L
sg6
I122
sbsS'contrast'
p3685
(iDictEntry
dict_entry
p3686
(dp3687
g5
L103766L
sg6
I1
sbsS'movement'
p3688
(iDictEntry
dict_entry
p3689
(dp3690
g5
L300619L
sg6
I2
sbsS'lacquer'
p3691
(iDictEntry
dict_entry
p3692
(dp3693
g5
L246439L
sg6
I2
sbsS'variat'
p3694
(iDictEntry
dict_entry
p3695
(dp3696
g5
L524293L
sg6
I1
sbsS'microbubbl'
p3697
(iDictEntry
dict_entry
p3698
(dp3699
g5
L290941L
sg6
I5
sbsS'alkylglycosid'
p3700
(iDictEntry
dict_entry
p3701
(dp3702
g5
L15186L
sg6
I1
sbsS'modular'
p3703
(iDictEntry
dict_entry
p3704
(dp3705
g5
L297557L
sg6
I1
sbsS'excess'
p3706
(iDictEntry
dict_entry
p3707
(dp3708
g5
L164652L
sg6
I8
sbsS'turbid'
p3709
(iDictEntry
dict_entry
p3710
(dp3711
g5
L509571L
sg6
I1
sbsS'standard'
p3712
(iDictEntry
dict_entry
p3713
(dp3714
g5
L453210L
sg6
I1
sbsS'modifi'
p3715
(iDictEntry
dict_entry
p3716
(dp3717
g5
L297109L
sg6
I5
sbsS'valv'
p3718
(iDictEntry
dict_entry
p3719
(dp3720
g5
L523093L
sg6
I10
sbsS'valu'
p3721
(iDictEntry
dict_entry
p3722
(dp3723
g5
L522831L
sg6
I5
sbsS'902'
p3724
(iDictEntry
dict_entry
p3725
(dp3726
g5
L2252L
sg6
I1
sbsS'900'
p3727
(iDictEntry
dict_entry
p3728
(dp3729
g5
L2193L
sg6
I1
sbsS'transduc'
p3730
(iDictEntry
dict_entry
p3731
(dp3732
g5
L499445L
sg6
I1
sbsS'prior'
p3733
(iDictEntry
dict_entry
p3734
(dp3735
g5
L363713L
sg6
I6
sbsS'amount'
p3736
(iDictEntry
dict_entry
p3737
(dp3738
g5
L19560L
sg6
I13
sbsS'therapeut'
p3739
(iDictEntry
dict_entry
p3740
(dp3741
g5
L488584L
sg6
I1
sbsS'social'
p3742
(iDictEntry
dict_entry
p3743
(dp3744
g5
L443667L
sg6
I1
sbsS'action'
p3745
(iDictEntry
dict_entry
p3746
(dp3747
g5
L6134L
sg6
I2
sbsS'narrow'
p3748
(iDictEntry
dict_entry
p3749
(dp3750
g5
L302804L
sg6
I3
sbsS'magnitud'
p3751
(iDictEntry
dict_entry
p3752
(dp3753
g5
L264265L
sg6
I2
sbsS'HCl'
p3754
(iDictEntry
dict_entry
p3755
(dp3756
g5
L210035L
sg6
I1
sbsS'diamet'
p3757
(iDictEntry
dict_entry
p3758
(dp3759
g5
L125234L
sg6
I3
sbsS'via'
p3760
(iDictEntry
dict_entry
p3761
(dp3762
g5
L526736L
sg6
I10
sbsS'coliform'
p3763
(iDictEntry
dict_entry
p3764
(dp3765
g5
L79244L
sg6
I1
sbsS'magnesium'
p3766
(iDictEntry
dict_entry
p3767
(dp3768
g5
L263969L
sg6
I1
sbsS'anaerob'
p3769
(iDictEntry
dict_entry
p3770
(dp3771
g5
L20254L
sg6
I12
sbsS'establish'
p3772
(iDictEntry
dict_entry
p3773
(dp3774
g5
L162467L
sg6
I3
sbsS'microorgan'
p3775
(iDictEntry
dict_entry
p3776
(dp3777
g5
L291749L
sg6
I11
sbsS'select'
p3778
(iDictEntry
dict_entry
p3779
(dp3780
g5
L419017L
sg6
I20
sbsS'eye'
p3781
(iDictEntry
dict_entry
p3782
(dp3783
g5
Nsg6
NsbsS'distinct'
p3784
(iDictEntry
dict_entry
p3785
(dp3786
g5
L137799L
sg6
I2
sbsS'injuri'
p3787
(iDictEntry
dict_entry
p3788
(dp3789
g5
L232567L
sg6
I1
sbsS'petroleum'
p3790
(iDictEntry
dict_entry
p3791
(dp3792
g5
L339719L
sg6
I2
sbsS'two'
p3793
(iDictEntry
dict_entry
p3794
(dp3795
g5
L510227L
sg6
I16
sbsS'massag'
p3796
(iDictEntry
dict_entry
p3797
(dp3798
g5
L268267L
sg6
I1
sbsS'splash'
p3799
(iDictEntry
dict_entry
p3800
(dp3801
g5
L451019L
sg6
I2
sbsS'taken'
p3802
(iDictEntry
dict_entry
p3803
(dp3804
g5
L475763L
sg6
I2
sbsS'raft'
p3805
(iDictEntry
dict_entry
p3806
(dp3807
g5
L385106L
sg6
I1
sbsS'more'
p3808
(iDictEntry
dict_entry
p3809
(dp3810
g5
L298637L
sg6
I1
sbsS'flat'
p3811
(iDictEntry
dict_entry
p3812
(dp3813
g5
L182758L
sg6
I5
sbsS'desir'
p3814
(iDictEntry
dict_entry
p3815
(dp3816
g5
L119903L
sg6
I6
sbsS'hundr'
p3817
(iDictEntry
dict_entry
p3818
(dp3819
g5
L217281L
sg6
I1
sbsS'particular'
p3820
(iDictEntry
dict_entry
p3821
(dp3822
g5
L333080L
sg6
I11
sbsS'disfavor'
p3823
(iDictEntry
dict_entry
p3824
(dp3825
g5
L133566L
sg6
I1
sbsS'abras'
p3826
(iDictEntry
dict_entry
p3827
(dp3828
g5
L2693L
sg6
I1
sbsS'gravel'
p3829
(iDictEntry
dict_entry
p3830
(dp3831
g5
L206230L
sg6
I1
sbsS'hour'
p3832
(iDictEntry
dict_entry
p3833
(dp3834
g5
L215826L
sg6
I3
sbsS'hous'
p3835
(iDictEntry
dict_entry
p3836
(dp3837
g5
L215984L
sg6
I14
sbsS'remain'
p3838
(iDictEntry
dict_entry
p3839
(dp3840
g5
L399011L
sg6
I2
sbsS'den'
p3841
(iDictEntry
dict_entry
p3842
(dp3843
g5
L116541L
sg6
I1
sbsS'learn'
p3844
(iDictEntry
dict_entry
p3845
(dp3846
g5
L248842L
sg6
I3
sbsS'male'
p3847
(iDictEntry
dict_entry
p3848
(dp3849
g5
L266319L
sg6
I1
sbsS'dual'
p3850
(iDictEntry
dict_entry
p3851
(dp3852
g5
L143548L
sg6
I1
sbsS'enzymolog'
p3853
(iDictEntry
dict_entry
p3854
(dp3855
g5
L160746L
sg6
I2
sbsS'phosphon'
p3856
(iDictEntry
dict_entry
p3857
(dp3858
g5
L340774L
sg6
I1
sbsS'registr'
p3859
(iDictEntry
dict_entry
p3860
(dp3861
g5
L395986L
sg6
I1
sbsS'emiss'
p3862
(iDictEntry
dict_entry
p3863
(dp3864
g5
L153885L
sg6
I2
sbsS'accept'
p3865
(iDictEntry
dict_entry
p3866
(dp3867
g5
L3062L
sg6
I1
sbsS'firmli'
p3868
(iDictEntry
dict_entry
p3869
(dp3870
g5
L179956L
sg6
I1
sbsS'cation'
p3871
(iDictEntry
dict_entry
p3872
(dp3873
g5
L65256L
sg6
I2
sbsS'compart'
p3874
(iDictEntry
dict_entry
p3875
(dp3876
g5
L84205L
sg6
I5
sbsS'cephalometr'
p3877
(iDictEntry
dict_entry
p3878
(dp3879
g5
L67633L
sg6
I1
sbsS'pond'
p3880
(iDictEntry
dict_entry
p3881
(dp3882
g5
L347969L
sg6
I4
sbsS'dress'
p3883
(iDictEntry
dict_entry
p3884
(dp3885
g5
L141572L
sg6
I2
sbsS'filter'
p3886
(iDictEntry
dict_entry
p3887
(dp3888
g5
L175039L
sg6
I28
sbsS'interconnect'
p3889
(iDictEntry
dict_entry
p3890
(dp3891
g5
L237042L
sg6
I2
sbsS'divid'
p3892
(iDictEntry
dict_entry
p3893
(dp3894
g5
L138964L
sg6
I9
sbsS'anoth'
p3895
(iDictEntry
dict_entry
p3896
(dp3897
g5
L23082L
sg6
I13
sbsS'nitrifi'
p3898
(iDictEntry
dict_entry
p3899
(dp3900
g5
L305959L
sg6
I1
sbsS'surprisingli'
p3901
(iDictEntry
dict_entry
p3902
(dp3903
g5
L469100L
sg6
I1
sbsS'reject'
p3904
(iDictEntry
dict_entry
p3905
(dp3906
g5
L396476L
sg6
I2
sbsS'voltag'
p3907
(iDictEntry
dict_entry
p3908
(dp3909
g5
L529238L
sg6
I2
sbsS'simpl'
p3910
(iDictEntry
dict_entry
p3911
(dp3912
g5
L435170L
sg6
I2
sbsS'regener'
p3913
(iDictEntry
dict_entry
p3914
(dp3915
g5
L395277L
sg6
I3
sbsS'plant'
p3916
(iDictEntry
dict_entry
p3917
(dp3918
g5
L343117L
sg6
I11
sbsS'resourc'
p3919
(iDictEntry
dict_entry
p3920
(dp3921
g5
L405051L
sg6
I1
sbsS'penetr'
p3922
(iDictEntry
dict_entry
p3923
(dp3924
g5
L336833L
sg6
I1
sbsS'gase'
p3925
(iDictEntry
dict_entry
p3926
(dp3927
g5
L200102L
sg6
I8
sbsS'reflect'
p3928
(iDictEntry
dict_entry
p3929
(dp3930
g5
L394955L
sg6
I2
sbsS'blood'
p3931
(iDictEntry
dict_entry
p3932
(dp3933
g5
L52445L
sg6
I6
sbsS'elastom'
p3934
(iDictEntry
dict_entry
p3935
(dp3936
g5
L148138L
sg6
I1
sbsS'associ'
p3937
(iDictEntry
dict_entry
p3938
(dp3939
g5
L36130L
sg6
I8
sbsS'stabil'
p3940
(iDictEntry
dict_entry
p3941
(dp3942
g5
L452606L
sg6
I3
sbsS'short'
p3943
(iDictEntry
dict_entry
p3944
(dp3945
g5
L432361L
sg6
I1
sbsS'coat'
p3946
(iDictEntry
dict_entry
p3947
(dp3948
g5
L78211L
sg6
I6
sbsS'crystallin'
p3949
(iDictEntry
dict_entry
p3950
(dp3951
g5
L109951L
sg6
I1
sbsS'caus'
p3952
(iDictEntry
dict_entry
p3953
(dp3954
g5
L65363L
sg6
I11
sbsS'coal'
p3955
(iDictEntry
dict_entry
p3956
(dp3957
g5
L77919L
sg6
I3
sbsS'cigarett'
p3958
(iDictEntry
dict_entry
p3959
(dp3960
g5
L73173L
sg6
I1
sbsS'interstiti'
p3961
(iDictEntry
dict_entry
p3962
(dp3963
g5
L238146L
sg6
I1
sbsS'rotat'
p3964
(iDictEntry
dict_entry
p3965
(dp3966
g5
L410518L
sg6
I12
sbsS'reservoir'
p3967
(iDictEntry
dict_entry
p3968
(dp3969
g5
L403770L
sg6
I3
sbsS'held'
p3970
(iDictEntry
dict_entry
p3971
(dp3972
g5
L211713L
sg6
I4
sbsS'thermal'
p3973
(iDictEntry
dict_entry
p3974
(dp3975
g5
L492147L
sg6
I3
sbsS'paper'
p3976
(iDictEntry
dict_entry
p3977
(dp3978
g5
L329388L
sg6
I5
sbsS'steril'
p3979
(iDictEntry
dict_entry
p3980
(dp3981
g5
L455152L
sg6
I2
sbsS'soot'
p3982
(iDictEntry
dict_entry
p3983
(dp3984
g5
L447572L
sg6
I1
sbsS'polyvinylamin'
p3985
(iDictEntry
dict_entry
p3986
(dp3987
g5
L347912L
sg6
I1
sbsS'paramet'
p3988
(iDictEntry
dict_entry
p3989
(dp3990
g5
L329811L
sg6
I2
sbsS'pyrolyz'
p3991
(iDictEntry
dict_entry
p3992
(dp3993
g5
L383169L
sg6
I1
sbsS'sodium'
p3994
(iDictEntry
dict_entry
p3995
(dp3996
g5
L443857L
sg6
I2
sbsS'alkylamino'
p3997
(iDictEntry
dict_entry
p3998
(dp3999
g5
L15129L
sg6
I1
sbsS'rapidli'
p4000
(iDictEntry
dict_entry
p4001
(dp4002
g5
L385704L
sg6
I3
sbsS'bypass'
p4003
(iDictEntry
dict_entry
p4004
(dp4005
g5
L59848L
sg6
I2
sbsS'reseal'
p4006
(iDictEntry
dict_entry
p4007
(dp4008
g5
L403713L
sg6
I1
sbsS'alter'
p4009
(iDictEntry
dict_entry
p4010
(dp4011
g5
L18786L
sg6
I2
sbsS'return'
p4012
(iDictEntry
dict_entry
p4013
(dp4014
g5
L408308L
sg6
I9
sbsS'food'
p4015
(iDictEntry
dict_entry
p4016
(dp4017
g5
L189072L
sg6
I3
sbsS'pollut'
p4018
(iDictEntry
dict_entry
p4019
(dp4020
g5
L346600L
sg6
I5
sbsS'framework'
p4021
(iDictEntry
dict_entry
p4022
(dp4023
g5
L195098L
sg6
I1
sbsS'compound'
p4024
(iDictEntry
dict_entry
p4025
(dp4026
g5
L87043L
sg6
I18
sbsS'detach'
p4027
(iDictEntry
dict_entry
p4028
(dp4029
g5
L120394L
sg6
I3
sbsS'wash'
p4030
(iDictEntry
dict_entry
p4031
(dp4032
g5
L530603L
sg6
I7
sbsS'convect'
p4033
(iDictEntry
dict_entry
p4034
(dp4035
g5
L105281L
sg6
I1
sbsS'radiat'
p4036
(iDictEntry
dict_entry
p4037
(dp4038
g5
L384830L
sg6
I1
sbsS'micro'
p4039
(iDictEntry
dict_entry
p4040
(dp4041
g5
L290094L
sg6
I9
sbsS'achiev'
p4042
(iDictEntry
dict_entry
p4043
(dp4044
g5
L5027L
sg6
I5
sbsS'reactiv'
p4045
(iDictEntry
dict_entry
p4046
(dp4047
g5
L387160L
sg6
I3
sbsS'compris'
p4048
(iDictEntry
dict_entry
p4049
(dp4050
g5
L88310L
sg6
I59
sbsS'radial'
p4051
(iDictEntry
dict_entry
p4052
(dp4053
g5
L384566L
sg6
I5
sbsS'found'
p4054
(iDictEntry
dict_entry
p4055
(dp4056
g5
L194206L
sg6
I3
sbsS'intervent'
p4057
(iDictEntry
dict_entry
p4058
(dp4059
g5
L238260L
sg6
I1
sbsS'harm'
p4060
(iDictEntry
dict_entry
p4061
(dp4062
g5
L209827L
sg6
I3
sbsS'weight'
p4063
(iDictEntry
dict_entry
p4064
(dp4065
g5
L545410L
sg6
I5
sbsS'colder'
p4066
(iDictEntry
dict_entry
p4067
(dp4068
g5
L79130L
sg6
I1
sbsS'fish'
p4069
(iDictEntry
dict_entry
p4070
(dp4071
g5
L181954L
sg6
I4
sbsS'timelin'
p4072
(iDictEntry
dict_entry
p4073
(dp4074
g5
L496981L
sg6
I1
sbsS'idea'
p4075
(iDictEntry
dict_entry
p4076
(dp4077
g5
L219198L
sg6
I1
sbsS'heavi'
p4078
(iDictEntry
dict_entry
p4079
(dp4080
g5
L211023L
sg6
I7
sbsS'connect'
p4081
(iDictEntry
dict_entry
p4082
(dp4083
g5
L95146L
sg6
I22
sbsS'stabl'
p4084
(iDictEntry
dict_entry
p4085
(dp4086
g5
L452764L
sg6
I1
sbsS'energi'
p4087
(iDictEntry
dict_entry
p4088
(dp4089
g5
L156577L
sg6
I15
sbsS'beyond'
p4090
(iDictEntry
dict_entry
p4091
(dp4092
g5
L48091L
sg6
I1
sbsS'event'
p4093
(iDictEntry
dict_entry
p4094
(dp4095
g5
L163563L
sg6
I3
sbsS'flower'
p4096
(iDictEntry
dict_entry
p4097
(dp4098
g5
L185861L
sg6
I2
sbsS'safeti'
p4099
(iDictEntry
dict_entry
p4100
(dp4101
g5
L411768L
sg6
I1
sbsS'alcohol'
p4102
(iDictEntry
dict_entry
p4103
(dp4104
g5
L14425L
sg6
I4
sbsS'inactiv'
p4105
(iDictEntry
dict_entry
p4106
(dp4107
g5
L223588L
sg6
I1
sbsS'bubbl'
p4108
(iDictEntry
dict_entry
p4109
(dp4110
g5
L56891L
sg6
I31
sbsS'silki'
p4111
(iDictEntry
dict_entry
p4112
(dp4113
g5
L434626L
sg6
I1
sbsS'sustain'
p4114
(iDictEntry
dict_entry
p4115
(dp4116
g5
L470080L
sg6
I1
sbsS'expans'
p4117
(iDictEntry
dict_entry
p4118
(dp4119
g5
L166701L
sg6
I1
sbsS'textil'
p4120
(iDictEntry
dict_entry
p4121
(dp4122
g5
L479805L
sg6
I5
sbsS'fiber'
p4123
(iDictEntry
dict_entry
p4124
(dp4125
g5
L173341L
sg6
I5
sbsS'solvent'
p4126
(iDictEntry
dict_entry
p4127
(dp4128
g5
L447018L
sg6
I7
sbsS'inert'
p4129
(iDictEntry
dict_entry
p4130
(dp4131
g5
L231171L
sg6
I1
sbsS'advanc'
p4132
(iDictEntry
dict_entry
p4133
(dp4134
g5
L9345L
sg6
I2
sbsS'disinfect'
p4135
(iDictEntry
dict_entry
p4136
(dp4137
g5
L133680L
sg6
I5
sbsS'base'
p4138
(iDictEntry
dict_entry
p4139
(dp4140
g5
L43811L
sg6
I27
sbsS'perchlor'
p4141
(iDictEntry
dict_entry
p4142
(dp4143
g5
L337287L
sg6
I1
sbsS'put'
p4144
(iDictEntry
dict_entry
p4145
(dp4146
g5
L382863L
sg6
I1
sbsS'riser'
p4147
(iDictEntry
dict_entry
p4148
(dp4149
g5
L409847L
sg6
I1
sbsS'ash'
p4150
(iDictEntry
dict_entry
p4151
(dp4152
g5
L34874L
sg6
I1
sbsS'basi'
p4153
(iDictEntry
dict_entry
p4154
(dp4155
g5
L45339L
sg6
I2
sbsS'faucet'
p4156
(iDictEntry
dict_entry
p4157
(dp4158
g5
L170867L
sg6
I1
sbsS'veloc'
p4159
(iDictEntry
dict_entry
p4160
(dp4161
g5
L525166L
sg6
I1
sbsS'perman'
p4162
(iDictEntry
dict_entry
p4163
(dp4164
g5
L338587L
sg6
I1
sbsS'circuit'
p4165
(iDictEntry
dict_entry
p4166
(dp4167
g5
L73230L
sg6
I5
sbsS'undergo'
p4168
(iDictEntry
dict_entry
p4169
(dp4170
g5
L512370L
sg6
I1
sbsS'feed'
p4171
(iDictEntry
dict_entry
p4172
(dp4173
g5
L172319L
sg6
I8
sbsS'major'
p4174
(iDictEntry
dict_entry
p4175
(dp4176
g5
L265421L
sg6
I2
sbsS'fischer'
p4177
(iDictEntry
dict_entry
p4178
(dp4179
g5
L181878L
sg6
I1
sbsS'upper'
p4180
(iDictEntry
dict_entry
p4181
(dp4182
g5
L514687L
sg6
I11
sbsS'feel'
p4183
(iDictEntry
dict_entry
p4184
(dp4185
g5
L172922L
sg6
I1
sbsS'exchang'
p4186
(iDictEntry
dict_entry
p4187
(dp4188
g5
L165075L
sg6
I4
sbsS'number'
p4189
(iDictEntry
dict_entry
p4190
(dp4191
g5
L310135L
sg6
I8
sbsS'feeder'
p4192
(iDictEntry
dict_entry
p4193
(dp4194
g5
L172741L
sg6
I2
sbsS'least'
p4195
(iDictEntry
dict_entry
p4196
(dp4197
g5
L249008L
sg6
I47
sbsS'membran'
p4198
(iDictEntry
dict_entry
p4199
(dp4200
g5
L279061L
sg6
I17
sbsS'mist'
p4201
(iDictEntry
dict_entry
p4202
(dp4203
g5
L293695L
sg6
I2
sbsS'stage'
p4204
(iDictEntry
dict_entry
p4205
(dp4206
g5
L453040L
sg6
I2
sbsS'differ'
p4207
(iDictEntry
dict_entry
p4208
(dp4209
g5
L125739L
sg6
I8
sbsS'jet'
p4210
(iDictEntry
dict_entry
p4211
(dp4212
g5
L244456L
sg6
I4
sbsS'interact'
p4213
(iDictEntry
dict_entry
p4214
(dp4215
g5
L236718L
sg6
I5
sbsS'unrestrict'
p4216
(iDictEntry
dict_entry
p4217
(dp4218
g5
L514162L
sg6
I1
sbsS'construct'
p4219
(iDictEntry
dict_entry
p4220
(dp4221
g5
L97630L
sg6
I2
sbsS'paint'
p4222
(iDictEntry
dict_entry
p4223
(dp4224
g5
L328976L
sg6
I2
sbsS'station'
p4225
(iDictEntry
dict_entry
p4226
(dp4227
g5
L453803L
sg6
I2
sbsS'storm'
p4228
(iDictEntry
dict_entry
p4229
(dp4230
g5
L456942L
sg6
I2
sbsS'twenti'
p4231
(iDictEntry
dict_entry
p4232
(dp4233
g5
L510170L
sg6
I1
sbsS'molecular'
p4234
(iDictEntry
dict_entry
p4235
(dp4236
g5
L298094L
sg6
I1
sbsS'store'
p4237
(iDictEntry
dict_entry
p4238
(dp4239
g5
L456067L
sg6
I16
sbsS'adher'
p4240
(iDictEntry
dict_entry
p4241
(dp4242
g5
L8213L
sg6
I3
sbsS'option'
p4243
(iDictEntry
dict_entry
p4244
(dp4245
g5
L319548L
sg6
I4
sbsS'relationship'
p4246
(iDictEntry
dict_entry
p4247
(dp4248
g5
L398363L
sg6
I2
sbsS'behind'
p4249
(iDictEntry
dict_entry
p4250
(dp4251
g5
L47706L
sg6
I1
sbsS'park'
p4252
(iDictEntry
dict_entry
p4253
(dp4254
g5
L329920L
sg6
I1
sbsS'part'
p4255
(iDictEntry
dict_entry
p4256
(dp4257
g5
L329996L
sg6
I21
sbsS'microlit'
p4258
(iDictEntry
dict_entry
p4259
(dp4260
g5
L291580L
sg6
I1
sbsS'lactam'
p4261
(iDictEntry
dict_entry
p4262
(dp4263
g5
L246550L
sg6
I1
sbsS'kind'
p4264
(iDictEntry
dict_entry
p4265
(dp4266
g5
L246161L
sg6
I2
sbsS'cyclic'
p4267
(iDictEntry
dict_entry
p4268
(dp4269
g5
L111145L
sg6
I1
sbsS'remov'
p4270
(iDictEntry
dict_entry
p4271
(dp4272
g5
L399499L
sg6
I48
sbsS'horizont'
p4273
(iDictEntry
dict_entry
p4274
(dp4275
g5
L215160L
sg6
I8
sbsS'reus'
p4276
(iDictEntry
dict_entry
p4277
(dp4278
g5
L408784L
sg6
I1
sbsS'arrang'
p4279
(iDictEntry
dict_entry
p4280
(dp4281
g5
L33490L
sg6
I10
sbsS'toward'
p4282
(iDictEntry
dict_entry
p4283
(dp4284
g5
L498722L
sg6
I4
sbsS'desalin'
p4285
(iDictEntry
dict_entry
p4286
(dp4287
g5
L118668L
sg6
I3
sbsS'solventless'
p4288
(iDictEntry
dict_entry
p4289
(dp4290
g5
L447408L
sg6
I2
sbsS'cleaner'
p4291
(iDictEntry
dict_entry
p4292
(dp4293
g5
L75988L
sg6
I1
sbsS'comput'
p4294
(iDictEntry
dict_entry
p4295
(dp4296
g5
L91537L
sg6
I10
sbsS'atmospher'
p4297
(iDictEntry
dict_entry
p4298
(dp4299
g5
L36558L
sg6
I3
sbsS'coolant'
p4300
(iDictEntry
dict_entry
p4301
(dp4302
g5
L106601L
sg6
I1
sbsS'heaviest'
p4303
(iDictEntry
dict_entry
p4304
(dp4305
g5
L211493L
sg6
I1
sbsS'defect'
p4306
(iDictEntry
dict_entry
p4307
(dp4308
g5
L114570L
sg6
I1
sbsS'packag'
p4309
(iDictEntry
dict_entry
p4310
(dp4311
g5
L328670L
sg6
I3
sbsS'cistern'
p4312
(iDictEntry
dict_entry
p4313
(dp4314
g5
L73948L
sg6
I1
sbsS'lid'
p4315
(iDictEntry
dict_entry
p4316
(dp4317
g5
L253275L
sg6
I3
sbsS'entireti'
p4318
(iDictEntry
dict_entry
p4319
(dp4320
g5
L159557L
sg6
I1
sbsS'built'
p4321
(iDictEntry
dict_entry
p4322
(dp4323
g5
L58982L
sg6
I3
sbsS'zero'
p4324
(iDictEntry
dict_entry
p4325
(dp4326
g5
L552246L
sg6
I1
sbsS'dentur'
p4327
(iDictEntry
dict_entry
p4328
(dp4329
g5
L117533L
sg6
I1
sbsS'self'
p4330
(iDictEntry
dict_entry
p4331
(dp4332
g5
L420139L
sg6
I3
sbsS'bacteria'
p4333
(iDictEntry
dict_entry
p4334
(dp4335
g5
L41767L
sg6
I17
sbsS'also'
p4336
(iDictEntry
dict_entry
p4337
(dp4338
g5
L16861L
sg6
I36
sbsS'endogen'
p4339
(iDictEntry
dict_entry
p4340
(dp4341
g5
L156469L
sg6
I1
sbsS'lip'
p4342
(iDictEntry
dict_entry
p4343
(dp4344
g5
L255863L
sg6
I4
sbsS'build'
p4345
(iDictEntry
dict_entry
p4346
(dp4347
g5
L58718L
sg6
I4
sbsS'dehydr'
p4348
(iDictEntry
dict_entry
p4349
(dp4350
g5
L115960L
sg6
I2
sbsS'donor'
p4351
(iDictEntry
dict_entry
p4352
(dp4353
g5
L139830L
sg6
I1
sbsS'tool'
p4354
(iDictEntry
dict_entry
p4355
(dp4356
g5
L497811L
sg6
I2
sbsS'honeycomb'
p4357
(iDictEntry
dict_entry
p4358
(dp4359
g5
L214995L
sg6
I1
sbsS'play'
p4360
(iDictEntry
dict_entry
p4361
(dp4362
g5
L344382L
sg6
I1
sbsS'distribut'
p4363
(iDictEntry
dict_entry
p4364
(dp4365
g5
L137965L
sg6
I10
sbsS'previou'
p4366
(iDictEntry
dict_entry
p4367
(dp4368
g5
L363433L
sg6
I1
sbsS'reach'
p4369
(iDictEntry
dict_entry
p4370
(dp4371
g5
L386592L
sg6
I2
sbsS'mixtur'
p4372
(iDictEntry
dict_entry
p4373
(dp4374
g5
L295324L
sg6
I19
sbsS'osmot'
p4375
(iDictEntry
dict_entry
p4376
(dp4377
g5
L322877L
sg6
I1
sbsS'react'
p4378
(iDictEntry
dict_entry
p4379
(dp4380
g5
L386698L
sg6
I2
sbsS'most'
p4381
(iDictEntry
dict_entry
p4382
(dp4383
g5
L298884L
sg6
I1
sbsS'virus'
p4384
(iDictEntry
dict_entry
p4385
(dp4386
g5
L528632L
sg6
I3
sbsS'prolifer'
p4387
(iDictEntry
dict_entry
p4388
(dp4389
g5
L371870L
sg6
I1
sbsS'dielectr'
p4390
(iDictEntry
dict_entry
p4391
(dp4392
g5
L125682L
sg6
I1
sbsS'moss'
p4393
(iDictEntry
dict_entry
p4394
(dp4395
g5
L298827L
sg6
I1
sbsS'conic'
p4396
(iDictEntry
dict_entry
p4397
(dp4398
g5
L94980L
sg6
I1
sbsS'The'
p4399
(iDictEntry
dict_entry
p4400
(dp4401
g5
L480224L
sg6
I147
sbsS'charg'
p4402
(iDictEntry
dict_entry
p4403
(dp4404
g5
L70856L
sg6
I4
sbsS'carbonac'
p4405
(iDictEntry
dict_entry
p4406
(dp4407
g5
L63007L
sg6
I1
sbsS'apparatus'
p4408
(iDictEntry
dict_entry
p4409
(dp4410
g5
L29321L
sg6
I2
sbsS'clear'
p4411
(iDictEntry
dict_entry
p4412
(dp4413
g5
L76096L
sg6
I2
sbsS'cover'
p4414
(iDictEntry
dict_entry
p4415
(dp4416
g5
L108359L
sg6
I11
sbsS'getter'
p4417
(iDictEntry
dict_entry
p4418
(dp4419
g5
L204893L
sg6
I1
sbsS'abnorm'
p4420
(iDictEntry
dict_entry
p4421
(dp4422
g5
L2636L
sg6
I1
sbsS'clean'
p4423
(iDictEntry
dict_entry
p4424
(dp4425
g5
L74510L
sg6
I22
sbsS'electrophotographi'
p4426
(iDictEntry
dict_entry
p4427
(dp4428
g5
L151300L
sg6
I1
sbsS'weigh'
p4429
(iDictEntry
dict_entry
p4430
(dp4431
g5
L545356L
sg6
I1
sbsS'skein'
p4432
(iDictEntry
dict_entry
p4433
(dp4434
g5
L437222L
sg6
I1
sbsS'blend'
p4435
(iDictEntry
dict_entry
p4436
(dp4437
g5
L52168L
sg6
I2
sbsS'humid'
p4438
(iDictEntry
dict_entry
p4439
(dp4440
g5
L217175L
sg6
I2
sbsS'phenomenon'
p4441
(iDictEntry
dict_entry
p4442
(dp4443
g5
L340507L
sg6
I3
sbsS'adsorb'
p4444
(iDictEntry
dict_entry
p4445
(dp4446
g5
L9186L
sg6
I3
sbsS'hydronium'
p4447
(iDictEntry
dict_entry
p4448
(dp4449
g5
L218563L
sg6
I1
sbsS'particularli'
p4450
(iDictEntry
dict_entry
p4451
(dp4452
g5
L333683L
sg6
I10
sbsS'fructofuranos'
p4453
(iDictEntry
dict_entry
p4454
(dp4455
g5
L196496L
sg6
I1
sbsS'fine'
p4456
(iDictEntry
dict_entry
p4457
(dp4458
g5
L177878L
sg6
I32
sbsS'find'
p4459
(iDictEntry
dict_entry
p4460
(dp4461
g5
L177819L
sg6
I1
sbsS'impact'
p4462
(iDictEntry
dict_entry
p4463
(dp4464
g5
L221658L
sg6
I3
sbsS'access'
p4465
(iDictEntry
dict_entry
p4466
(dp4467
g5
L3119L
sg6
I5
sbsS'210'
p4468
(iDictEntry
dict_entry
p4469
(dp4470
g5
L1340L
sg6
I1
sbsS'solut'
p4471
(iDictEntry
dict_entry
p4472
(dp4473
g5
L445948L
sg6
I18
sbsS'factor'
p4474
(iDictEntry
dict_entry
p4475
(dp4476
g5
L170337L
sg6
I1
sbsS'inciner'
p4477
(iDictEntry
dict_entry
p4478
(dp4479
g5
L223815L
sg6
I1
sbsS'remedi'
p4480
(iDictEntry
dict_entry
p4481
(dp4482
g5
L399175L
sg6
I4
sbsS'waterproof'
p4483
(iDictEntry
dict_entry
p4484
(dp4485
g5
L544690L
sg6
I2
sbsS'intensifi'
p4486
(iDictEntry
dict_entry
p4487
(dp4488
g5
L236661L
sg6
I1
sbsS'nativ'
p4489
(iDictEntry
dict_entry
p4490
(dp4491
g5
L302962L
sg6
I1
sbsS'mainten'
p4492
(iDictEntry
dict_entry
p4493
(dp4494
g5
L265263L
sg6
I3
sbsS'pellet'
p4495
(iDictEntry
dict_entry
p4496
(dp4497
g5
L336707L
sg6
I2
sbsS'synthet'
p4498
(iDictEntry
dict_entry
p4499
(dp4500
g5
L470692L
sg6
I2
sbsS'whenev'
p4501
(iDictEntry
dict_entry
p4502
(dp4503
g5
L546945L
sg6
I1
sbsS'statist'
p4504
(iDictEntry
dict_entry
p4505
(dp4506
g5
L453986L
sg6
I1
sbsS'respir'
p4507
(iDictEntry
dict_entry
p4508
(dp4509
g5
L405812L
sg6
I1
sbsS'set'
p4510
(iDictEntry
dict_entry
p4511
(dp4512
g5
L426628L
sg6
I11
sbsS'filtercak'
p4513
(iDictEntry
dict_entry
p4514
(dp4515
g5
L176749L
sg6
I1
sbsS'kiln'
p4516
(iDictEntry
dict_entry
p4517
(dp4518
g5
L246104L
sg6
I1
sbsS'For'
p4519
(iDictEntry
dict_entry
p4520
(dp4521
g5
Nsg6
NsbsS'coagul'
p4522
(iDictEntry
dict_entry
p4523
(dp4524
g5
L77708L
sg6
I4
sbsS'vine'
p4525
(iDictEntry
dict_entry
p4526
(dp4527
g5
L528129L
sg6
I1
sbsS'inocul'
p4528
(iDictEntry
dict_entry
p4529
(dp4530
g5
L233791L
sg6
I2
sbsS'leukocyt'
p4531
(iDictEntry
dict_entry
p4532
(dp4533
g5
L252455L
sg6
I1
sbsS'aquacultur'
p4534
(iDictEntry
dict_entry
p4535
(dp4536
g5
L31190L
sg6
I3
sbsS'sea'
p4537
(iDictEntry
dict_entry
p4538
(dp4539
g5
L415401L
sg6
I3
sbsS'close'
p4540
(iDictEntry
dict_entry
p4541
(dp4542
g5
L76532L
sg6
I13
sbsS'arm'
p4543
(iDictEntry
dict_entry
p4544
(dp4545
g5
L33275L
sg6
I1
sbsS'project'
p4546
(iDictEntry
dict_entry
p4547
(dp4548
g5
L371498L
sg6
I7
sbsS'mine'
p4549
(iDictEntry
dict_entry
p4550
(dp4551
g5
L292702L
sg6
I1
sbsS'stonemasonri'
p4552
(iDictEntry
dict_entry
p4553
(dp4554
g5
L455699L
sg6
I1
sbsS'burner'
p4555
(iDictEntry
dict_entry
p4556
(dp4557
g5
L59568L
sg6
I1
sbsS'enclosur'
p4558
(iDictEntry
dict_entry
p4559
(dp4560
g5
L155485L
sg6
I3
sbsS'altern'
p4561
(iDictEntry
dict_entry
p4562
(dp4563
g5
L18893L
sg6
I3
sbsS'numer'
p4564
(iDictEntry
dict_entry
p4565
(dp4566
g5
L310563L
sg6
I2
sbsS'genet'
p4567
(iDictEntry
dict_entry
p4568
(dp4569
g5
L204455L
sg6
I2
sbsS'induc'
p4570
(iDictEntry
dict_entry
p4571
(dp4572
g5
L230170L
sg6
I2
sbsS'isom'
p4573
(iDictEntry
dict_entry
p4574
(dp4575
g5
L243744L
sg6
I3
sbsS'isol'
p4576
(iDictEntry
dict_entry
p4577
(dp4578
g5
L243567L
sg6
I3
sbsS'multilay'
p4579
(iDictEntry
dict_entry
p4580
(dp4581
g5
L301275L
sg6
I1
sbsS'spray'
p4582
(iDictEntry
dict_entry
p4583
(dp4584
g5
L451256L
sg6
I20
sbsS'consumpt'
p4585
(iDictEntry
dict_entry
p4586
(dp4587
g5
L97756L
sg6
I3
sbsS'distinguish'
p4588
(iDictEntry
dict_entry
p4589
(dp4590
g5
L137908L
sg6
I1
sbsS'popul'
p4591
(iDictEntry
dict_entry
p4592
(dp4593
g5
L348292L
sg6
I1
sbsS'AND'
p4594
(iDictEntry
dict_entry
p4595
(dp4596
g5
L21436L
sg6
I12
sbsS'bodi'
p4597
(iDictEntry
dict_entry
p4598
(dp4599
g5
L53076L
sg6
I20
sbsS'anox'
p4600
(iDictEntry
dict_entry
p4601
(dp4602
g5
L23771L
sg6
I2
sbsS'delimit'
p4603
(iDictEntry
dict_entry
p4604
(dp4605
g5
L116162L
sg6
I1
sbsS'retent'
p4606
(iDictEntry
dict_entry
p4607
(dp4608
g5
L407745L
sg6
I2
sbsS'immers'
p4609
(iDictEntry
dict_entry
p4610
(dp4611
g5
L221332L
sg6
I2
sbsS'alon'
p4612
(iDictEntry
dict_entry
p4613
(dp4614
g5
L16221L
sg6
I1
sbsS'tempor'
p4615
(iDictEntry
dict_entry
p4616
(dp4617
g5
L478949L
sg6
I1
sbsS'anod'
p4618
(iDictEntry
dict_entry
p4619
(dp4620
g5
L22968L
sg6
I1
sbsS'protector'
p4621
(iDictEntry
dict_entry
p4622
(dp4623
g5
L373303L
sg6
I1
sbsS'whole'
p4624
(iDictEntry
dict_entry
p4625
(dp4626
g5
L548507L
sg6
I2
sbsS'Yet'
p4627
(iDictEntry
dict_entry
p4628
(dp4629
g5
L551981L
sg6
I2
sbsS'load'
p4630
(iDictEntry
dict_entry
p4631
(dp4632
g5
L259013L
sg6
I8
sbsS'simpli'
p4633
(iDictEntry
dict_entry
p4634
(dp4635
g5
L435281L
sg6
I1
sbsS'point'
p4636
(iDictEntry
dict_entry
p4637
(dp4638
g5
L345986L
sg6
I7
sbsS'proton'
p4639
(iDictEntry
dict_entry
p4640
(dp4641
g5
L373569L
sg6
I1
sbsS'hollow'
p4642
(iDictEntry
dict_entry
p4643
(dp4644
g5
L214612L
sg6
I5
sbsS'residu'
p4645
(iDictEntry
dict_entry
p4646
(dp4647
g5
L403984L
sg6
I6
sbsS'header'
p4648
(iDictEntry
dict_entry
p4649
(dp4650
g5
L210250L
sg6
I2
sbsS'downhol'
p4651
(iDictEntry
dict_entry
p4652
(dp4653
g5
L140253L
sg6
I1
sbsS'suppli'
p4654
(iDictEntry
dict_entry
p4655
(dp4656
g5
L464814L
sg6
I26
sbsS'batteri'
p4657
(iDictEntry
dict_entry
p4658
(dp4659
g5
L46085L
sg6
I16
sbsS'zeta'
p4660
(iDictEntry
dict_entry
p4661
(dp4662
g5
L552327L
sg6
I1
sbsS'throughout'
p4663
(iDictEntry
dict_entry
p4664
(dp4665
g5
L495224L
sg6
I4
sbsS'becom'
p4666
(iDictEntry
dict_entry
p4667
(dp4668
g5
L47284L
sg6
I4
sbsS'conveyor'
p4669
(iDictEntry
dict_entry
p4670
(dp4671
g5
L106335L
sg6
I1
sbsS'help'
p4672
(iDictEntry
dict_entry
p4673
(dp4674
g5
L212000L
sg6
I1
sbsS'devic'
p4675
(iDictEntry
dict_entry
p4676
(dp4677
g5
L122150L
sg6
I47
sbsS'due'
p4678
(iDictEntry
dict_entry
p4679
(dp4680
g5
L143605L
sg6
I6
sbsS'empti'
p4681
(iDictEntry
dict_entry
p4682
(dp4683
g5
L154381L
sg6
I1
sbsS'inorgan'
p4684
(iDictEntry
dict_entry
p4685
(dp4686
g5
L233898L
sg6
I9
sbsS'treatment'
p4687
(iDictEntry
dict_entry
p4688
(dp4689
g5
L503077L
sg6
I83
sbsS'carboxyl'
p4690
(iDictEntry
dict_entry
p4691
(dp4692
g5
L63064L
sg6
I1
sbsS'flight'
p4693
(iDictEntry
dict_entry
p4694
(dp4695
g5
L183155L
sg6
I1
sbsS'fire'
p4696
(iDictEntry
dict_entry
p4697
(dp4698
g5
L179701L
sg6
I5
sbsS'imag'
p4699
(iDictEntry
dict_entry
p4700
(dp4701
g5
L220009L
sg6
I19
sbsS'densiti'
p4702
(iDictEntry
dict_entry
p4703
(dp4704
g5
L117373L
sg6
I3
sbsS'gas'
p4705
(iDictEntry
dict_entry
p4706
(dp4707
g5
L197914L
sg6
I40
sbsS'racem'
p4708
(iDictEntry
dict_entry
p4709
(dp4710
g5
L384417L
sg6
I3
sbsS'gap'
p4711
(iDictEntry
dict_entry
p4712
(dp4713
g5
L197855L
sg6
I1
sbsS'dislodg'
p4714
(iDictEntry
dict_entry
p4715
(dp4716
g5
L134198L
sg6
I1
sbsS'vane'
p4717
(iDictEntry
dict_entry
p4718
(dp4719
g5
L523621L
sg6
I1
sbsS'workpiec'
p4720
(iDictEntry
dict_entry
p4721
(dp4722
g5
L551581L
sg6
I1
sbsS'demand'
p4723
(iDictEntry
dict_entry
p4724
(dp4725
g5
L116484L
sg6
I1
sbsS'tangenti'
p4726
(iDictEntry
dict_entry
p4727
(dp4728
g5
L475870L
sg6
I1
sbsS'unsatur'
p4729
(iDictEntry
dict_entry
p4730
(dp4731
g5
L514220L
sg6
I1
sbsS'solid'
p4732
(iDictEntry
dict_entry
p4733
(dp4734
g5
L444430L
sg6
I19
sbsS'straight'
p4735
(iDictEntry
dict_entry
p4736
(dp4737
g5
L457156L
sg6
I1
sbsS'batch'
p4738
(iDictEntry
dict_entry
p4739
(dp4740
g5
L45770L
sg6
I2
sbsS'mls'
p4741
(iDictEntry
dict_entry
p4742
(dp4743
g5
L296368L
sg6
I1
sbsS'microemuls'
p4744
(iDictEntry
dict_entry
p4745
(dp4746
g5
L291342L
sg6
I2
sbsS'clarifi'
p4747
(iDictEntry
dict_entry
p4748
(dp4749
g5
L74113L
sg6
I2
sbsS'loop'
p4750
(iDictEntry
dict_entry
p4751
(dp4752
g5
L261173L
sg6
I1
sbsS'pack'
p4753
(iDictEntry
dict_entry
p4754
(dp4755
g5
L328360L
sg6
I5
sbsS'propag'
p4756
(iDictEntry
dict_entry
p4757
(dp4758
g5
L372090L
sg6
I5
sbsS'voc'
p4759
(iDictEntry
dict_entry
p4760
(dp4761
g5
L528950L
sg6
I1
sbsS'herein'
p4762
(iDictEntry
dict_entry
p4763
(dp4764
g5
L212272L
sg6
I4
sbsS'rim'
p4765
(iDictEntry
dict_entry
p4766
(dp4767
g5
L409334L
sg6
I1
sbsS'spong'
p4768
(iDictEntry
dict_entry
p4769
(dp4770
g5
L451180L
sg6
I1
sbsS'virtu'
p4771
(iDictEntry
dict_entry
p4772
(dp4773
g5
L528259L
sg6
I1
sbsS'shirt'
p4774
(iDictEntry
dict_entry
p4775
(dp4776
g5
L432304L
sg6
I1
sbsS'minim'
p4777
(iDictEntry
dict_entry
p4778
(dp4779
g5
L293118L
sg6
I2
sbsS'belong'
p4780
(iDictEntry
dict_entry
p4781
(dp4782
g5
L47763L
sg6
I1
sbsS'wherein'
p4783
(iDictEntry
dict_entry
p4784
(dp4785
g5
L547274L
sg6
I18
sbsS'FAN'
p4786
(iDictEntry
dict_entry
p4787
(dp4788
g5
Nsg6
NsbsS'elong'
p4789
(iDictEntry
dict_entry
p4790
(dp4791
g5
L152295L
sg6
I4
sbsS'ester'
p4792
(iDictEntry
dict_entry
p4793
(dp4794
g5
L162625L
sg6
I3
sbsS'cbod'
p4795
(iDictEntry
dict_entry
p4796
(dp4797
g5
L66007L
sg6
I1
sbsS'higher'
p4798
(iDictEntry
dict_entry
p4799
(dp4800
g5
L213517L
sg6
I5
sbsS'optic'
p4801
(iDictEntry
dict_entry
p4802
(dp4803
g5
L319348L
sg6
I3
sbsS'optim'
p4804
(iDictEntry
dict_entry
p4805
(dp4806
g5
L319497L
sg6
I1
sbsS'restraint'
p4807
(iDictEntry
dict_entry
p4808
(dp4809
g5
L406184L
sg6
I1
sbsS'cement'
p4810
(iDictEntry
dict_entry
p4811
(dp4812
g5
L66595L
sg6
I1
sbsS'000'
p4813
(iDictEntry
dict_entry
p4814
(dp4815
g5
L0L
sg6
I1
sbsS'temporari'
p4816
(iDictEntry
dict_entry
p4817
(dp4818
g5
L479006L
sg6
I1
sbsS'user'
p4819
(iDictEntry
dict_entry
p4820
(dp4821
g5
L521501L
sg6
I4
sbsS'cyst'
p4822
(iDictEntry
dict_entry
p4823
(dp4824
g5
L111493L
sg6
I1
sbsS'injector'
p4825
(iDictEntry
dict_entry
p4826
(dp4827
g5
L232460L
sg6
I2
sbsS'multimod'
p4828
(iDictEntry
dict_entry
p4829
(dp4830
g5
L301332L
sg6
I1
sbsS'stack'
p4831
(iDictEntry
dict_entry
p4832
(dp4833
g5
L452983L
sg6
I1
sbsS'metabol'
p4834
(iDictEntry
dict_entry
p4835
(dp4836
g5
L280876L
sg6
I1
sbsS'travers'
p4837
(iDictEntry
dict_entry
p4838
(dp4839
g5
L500563L
sg6
I1
sbsS'task'
p4840
(iDictEntry
dict_entry
p4841
(dp4842
g5
L477407L
sg6
I1
sbsS'particul'
p4843
(iDictEntry
dict_entry
p4844
(dp4845
g5
L332872L
sg6
I4
sbsS'discourag'
p4846
(iDictEntry
dict_entry
p4847
(dp4848
g5
L133338L
sg6
I1
sbsS'entri'
p4849
(iDictEntry
dict_entry
p4850
(dp4851
g5
L159804L
sg6
I1
sbsS'chemistri'
p4852
(iDictEntry
dict_entry
p4853
(dp4854
g5
L72543L
sg6
I2
sbsS'protrus'
p4855
(iDictEntry
dict_entry
p4856
(dp4857
g5
L373835L
sg6
I1
sbsS'person'
p4858
(iDictEntry
dict_entry
p4859
(dp4860
g5
L339292L
sg6
I1
sbsS'surfact'
p4861
(iDictEntry
dict_entry
p4862
(dp4863
g5
L468706L
sg6
I4
sbsS'expens'
p4864
(iDictEntry
dict_entry
p4865
(dp4866
g5
L166865L
sg6
I1
sbsS'withdraw'
p4867
(iDictEntry
dict_entry
p4868
(dp4869
g5
L548982L
sg6
I3
sbsS'deplet'
p4870
(iDictEntry
dict_entry
p4871
(dp4872
g5
L118007L
sg6
I1
sbsS'protrud'
p4873
(iDictEntry
dict_entry
p4874
(dp4875
g5
L373677L
sg6
I3
sbsS'predetermin'
p4876
(iDictEntry
dict_entry
p4877
(dp4878
g5
L355383L
sg6
I7
sbsS'atomis'
p4879
(iDictEntry
dict_entry
p4880
(dp4881
g5
L37076L
sg6
I15
sbsS'ceram'
p4882
(iDictEntry
dict_entry
p4883
(dp4884
g5
L67690L
sg6
I4
sbsS'shape'
p4885
(iDictEntry
dict_entry
p4886
(dp4887
g5
L431467L
sg6
I7
sbsS'administ'
p4888
(iDictEntry
dict_entry
p4889
(dp4890
g5
L8959L
sg6
I1
sbsS'tablet'
p4891
(iDictEntry
dict_entry
p4892
(dp4893
g5
L475330L
sg6
I1
sbsS'cup'
p4894
(iDictEntry
dict_entry
p4895
(dp4896
g5
L110501L
sg6
I1
sbsS'stimul'
p4897
(iDictEntry
dict_entry
p4898
(dp4899
g5
L455539L
sg6
I1
sbsS'codestream'
p4900
(iDictEntry
dict_entry
p4901
(dp4902
g5
L78692L
sg6
I1
sbsS'input'
p4903
(iDictEntry
dict_entry
p4904
(dp4905
g5
L234371L
sg6
I7
sbsS'subsequ'
p4906
(iDictEntry
dict_entry
p4907
(dp4908
g5
L460637L
sg6
I3
sbsS'insert'
p4909
(iDictEntry
dict_entry
p4910
(dp4911
g5
L234944L
sg6
I4
sbsS'molecul'
p4912
(iDictEntry
dict_entry
p4913
(dp4914
g5
L297937L
sg6
I3
sbsS'Air'
p4915
(iDictEntry
dict_entry
p4916
(dp4917
g5
Nsg6
NsbsS'discriminatori'
p4918
(iDictEntry
dict_entry
p4919
(dp4920
g5
L133509L
sg6
I1
sbsS'peripher'
p4921
(iDictEntry
dict_entry
p4922
(dp4923
g5
L338430L
sg6
I3
sbsS'semi'
p4924
(iDictEntry
dict_entry
p4925
(dp4926
g5
L420317L
sg6
I4
sbsS'oxyanion'
p4927
(iDictEntry
dict_entry
p4928
(dp4929
g5
L327313L
sg6
I1
sbsS'signal'
p4930
(iDictEntry
dict_entry
p4931
(dp4932
g5
L433756L
sg6
I4
sbsS'phosphoru'
p4933
(iDictEntry
dict_entry
p4934
(dp4935
g5
L340887L
sg6
I2
sbsS'flue'
p4936
(iDictEntry
dict_entry
p4937
(dp4938
g5
L186022L
sg6
I1
sbsS'collect'
p4939
(iDictEntry
dict_entry
p4940
(dp4941
g5
L79465L
sg6
I18
sbsS'byproduct'
p4942
(iDictEntry
dict_entry
p4943
(dp4944
g5
L59955L
sg6
I1
sbsS'cruis'
p4945
(iDictEntry
dict_entry
p4946
(dp4947
g5
L109711L
sg6
I1
sbsS'stormwat'
p4948
(iDictEntry
dict_entry
p4949
(dp4950
g5
L457049L
sg6
I2
sbsS'often'
p4951
(iDictEntry
dict_entry
p4952
(dp4953
g5
L312618L
sg6
I1
sbsS'creation'
p4954
(iDictEntry
dict_entry
p4955
(dp4956
g5
L109270L
sg6
I1
sbsS'back'
p4957
(iDictEntry
dict_entry
p4958
(dp4959
g5
L40870L
sg6
I9
sbsS'litter'
p4960
(iDictEntry
dict_entry
p4961
(dp4962
g5
L258638L
sg6
I1
sbsS'sampl'
p4963
(iDictEntry
dict_entry
p4964
(dp4965
g5
L413429L
sg6
I2
sbsS'stir'
p4966
(iDictEntry
dict_entry
p4967
(dp4968
g5
L455593L
sg6
I2
sbsS'alkali'
p4969
(iDictEntry
dict_entry
p4970
(dp4971
g5
L14750L
sg6
I2
sbsS'contactor'
p4972
(iDictEntry
dict_entry
p4973
(dp4974
g5
L98865L
sg6
I2
sbsS'scale'
p4975
(iDictEntry
dict_entry
p4976
(dp4977
g5
L414374L
sg6
I3
sbsS'debri'
p4978
(iDictEntry
dict_entry
p4979
(dp4980
g5
L113896L
sg6
I1
sbsS'flux'
p4981
(iDictEntry
dict_entry
p4982
(dp4983
g5
L187962L
sg6
I2
sbsS'pharmaceut'
p4984
(iDictEntry
dict_entry
p4985
(dp4986
g5
L339817L
sg6
I3
sbsS'per'
p4987
(iDictEntry
dict_entry
p4988
(dp4989
g5
L336969L
sg6
I4
sbsS'recognit'
p4990
(iDictEntry
dict_entry
p4991
(dp4992
g5
L390843L
sg6
I11
sbsS'substitut'
p4993
(iDictEntry
dict_entry
p4994
(dp4995
g5
L462012L
sg6
I1
sbsS'larg'
p4996
(iDictEntry
dict_entry
p4997
(dp4998
g5
L247026L
sg6
I7
sbsS'machin'
p4999
(iDictEntry
dict_entry
p5000
(dp5001
g5
L262628L
sg6
I9
sbsS'patient'
p5002
(iDictEntry
dict_entry
p5003
(dp5004
g5
L336191L
sg6
I1
sbsS'300'
p5005
(iDictEntry
dict_entry
p5006
(dp5007
g5
L1572L
sg6
I2
sbsS'301'
p5008
(iDictEntry
dict_entry
p5009
(dp5010
g5
L1679L
sg6
I1
sbsS'303'
p5011
(iDictEntry
dict_entry
p5012
(dp5013
g5
L1738L
sg6
I1
sbsS'annular'
p5014
(iDictEntry
dict_entry
p5015
(dp5016
g5
L22700L
sg6
I5
sbsS'perpendicular'
p5017
(iDictEntry
dict_entry
p5018
(dp5019
g5
L339128L
sg6
I2
sbsS'viabl'
p5020
(iDictEntry
dict_entry
p5021
(dp5022
g5
L527292L
sg6
I1
sbsS'sacrif'
p5023
(iDictEntry
dict_entry
p5024
(dp5025
g5
L411652L
sg6
I1
sbsS'step'
p5026
(iDictEntry
dict_entry
p5027
(dp5028
g5
L454355L
sg6
I15
sbsS'dianhydrid'
p5029
(iDictEntry
dict_entry
p5030
(dp5031
g5
L125392L
sg6
I1
sbsS'IVA'
p5032
(iDictEntry
dict_entry
p5033
(dp5034
g5
L244172L
sg6
I1
sbsS'IVB'
p5035
(iDictEntry
dict_entry
p5036
(dp5037
g5
L244229L
sg6
I1
sbsS'materi'
p5038
(iDictEntry
dict_entry
p5039
(dp5040
g5
L268887L
sg6
I42
sbsS'revolut'
p5041
(iDictEntry
dict_entry
p5042
(dp5043
g5
L408841L
sg6
I1
sbsS'disclosur'
p5044
(iDictEntry
dict_entry
p5045
(dp5046
g5
L133231L
sg6
I2
sbsS'modal'
p5047
(iDictEntry
dict_entry
p5048
(dp5049
g5
L296532L
sg6
I1
sbsS'therethrough'
p5050
(iDictEntry
dict_entry
p5051
(dp5052
g5
L491987L
sg6
I3
sbsS'block'
p5053
(iDictEntry
dict_entry
p5054
(dp5055
g5
L52338L
sg6
I2
sbsS'repair'
p5056
(iDictEntry
dict_entry
p5057
(dp5058
g5
L402487L
sg6
I1
sbsS'doubl'
p5059
(iDictEntry
dict_entry
p5060
(dp5061
g5
L140127L
sg6
I2
sbsS'bioaugment'
p5062
(iDictEntry
dict_entry
p5063
(dp5064
g5
L48377L
sg6
I1
sbsS'primarili'
p5065
(iDictEntry
dict_entry
p5066
(dp5067
g5
L363656L
sg6
I1
sbsS'biolay'
p5068
(iDictEntry
dict_entry
p5069
(dp5070
g5
L49400L
sg6
I1
sbsS'within'
p5071
(iDictEntry
dict_entry
p5072
(dp5073
g5
L549140L
sg6
I27
sbsS'irrig'
p5074
(iDictEntry
dict_entry
p5075
(dp5076
g5
L243510L
sg6
I1
sbsS'ensur'
p5077
(iDictEntry
dict_entry
p5078
(dp5079
g5
L158639L
sg6
I4
sbsS'chang'
p5080
(iDictEntry
dict_entry
p5081
(dp5082
g5
L69291L
sg6
I7
sbsS'updat'
p5083
(iDictEntry
dict_entry
p5084
(dp5085
g5
L514460L
sg6
I1
sbsS'artifici'
p5086
(iDictEntry
dict_entry
p5087
(dp5088
g5
L34770L
sg6
I2
sbsS'agricultur'
p5089
(iDictEntry
dict_entry
p5090
(dp5091
g5
L11942L
sg6
I1
sbsS'long'
p5092
(iDictEntry
dict_entry
p5093
(dp5094
g5
L260849L
sg6
I4
sbsS'custom'
p5095
(iDictEntry
dict_entry
p5096
(dp5097
g5
L110879L
sg6
I1
sbsS'adjac'
p5098
(iDictEntry
dict_entry
p5099
(dp5100
g5
L8378L
sg6
I4
sbsS'includ'
p5101
(iDictEntry
dict_entry
p5102
(dp5103
g5
L223984L
sg6
I92
sbsS'suit'
p5104
(iDictEntry
dict_entry
p5105
(dp5106
g5
L463441L
sg6
I1
sbsS'potassium'
p5107
(iDictEntry
dict_entry
p5108
(dp5109
g5
L353272L
sg6
I1
sbsS'decomposit'
p5110
(iDictEntry
dict_entry
p5111
(dp5112
g5
L114349L
sg6
I2
sbsS'cloth'
p5113
(iDictEntry
dict_entry
p5114
(dp5115
g5
L77351L
sg6
I3
sbsS'link'
p5116
(iDictEntry
dict_entry
p5117
(dp5118
g5
L255756L
sg6
I2
sbsS'atom'
p5119
(iDictEntry
dict_entry
p5120
(dp5121
g5
L36715L
sg6
I6
sbsS'line'
p5122
(iDictEntry
dict_entry
p5123
(dp5124
g5
L255433L
sg6
I5
sbsS'mitig'
p5125
(iDictEntry
dict_entry
p5126
(dp5127
g5
L293842L
sg6
I1
sbsS'consist'
p5128
(iDictEntry
dict_entry
p5129
(dp5130
g5
L96661L
sg6
I13
sbsS'114'
p5131
(iDictEntry
dict_entry
p5132
(dp5133
g5
L522L
sg6
I2
sbsS'hydromassag'
p5134
(iDictEntry
dict_entry
p5135
(dp5136
g5
L218512L
sg6
I1
sbsS'transmitt'
p5137
(iDictEntry
dict_entry
p5138
(dp5139
g5
L500158L
sg6
I1
sbsS'intim'
p5140
(iDictEntry
dict_entry
p5141
(dp5142
g5
L238317L
sg6
I1
sbsS'contin'
p5143
(iDictEntry
dict_entry
p5144
(dp5145
g5
L102992L
sg6
I1
sbsS'similar'
p5146
(iDictEntry
dict_entry
p5147
(dp5148
g5
L434847L
sg6
I5
sbsS'curv'
p5149
(iDictEntry
dict_entry
p5150
(dp5151
g5
L110772L
sg6
I2
sbsS'desorb'
p5152
(iDictEntry
dict_entry
p5153
(dp5154
g5
L120211L
sg6
I1
sbsS'groundwat'
p5155
(iDictEntry
dict_entry
p5156
(dp5157
g5
L207052L
sg6
I2
sbsS'constant'
p5158
(iDictEntry
dict_entry
p5159
(dp5160
g5
L97410L
sg6
I1
sbsS'flow'
p5161
(iDictEntry
dict_entry
p5162
(dp5163
g5
L183870L
sg6
I37
sbsS'utilis'
p5164
(iDictEntry
dict_entry
p5165
(dp5166
g5
L522614L
sg6
I1
sbsS'Ice'
p5167
(iDictEntry
dict_entry
p5168
(dp5169
g5
L219076L
sg6
I2
sbsS'repres'
p5170
(iDictEntry
dict_entry
p5171
(dp5172
g5
L403067L
sg6
I8
sbsS'char'
p5173
(iDictEntry
dict_entry
p5174
(dp5175
g5
L70101L
sg6
I1
sbsS'dehumidifi'
p5176
(iDictEntry
dict_entry
p5177
(dp5178
g5
L115903L
sg6
I1
sbsS'cure'
p5179
(iDictEntry
dict_entry
p5180
(dp5181
g5
L110558L
sg6
I1
sbsS'journal'
p5182
(iDictEntry
dict_entry
p5183
(dp5184
g5
L244945L
sg6
I1
sbsS'sequenti'
p5185
(iDictEntry
dict_entry
p5186
(dp5187
g5
L425812L
sg6
I2
sbsS'furnac'
p5188
(iDictEntry
dict_entry
p5189
(dp5190
g5
L197461L
sg6
I2
sbsS'ferment'
p5191
(iDictEntry
dict_entry
p5192
(dp5193
g5
L173092L
sg6
I5
sbsS'drainag'
p5194
(iDictEntry
dict_entry
p5195
(dp5196
g5
L141062L
sg6
I4
sbsS'draw'
p5197
(iDictEntry
dict_entry
p5198
(dp5199
g5
L141307L
sg6
I3
sbsS'scrub'
p5200
(iDictEntry
dict_entry
p5201
(dp5202
g5
L415224L
sg6
I3
sbsS'insect'
p5203
(iDictEntry
dict_entry
p5204
(dp5205
g5
L234743L
sg6
I4
sbsS'enzym'
p5206
(iDictEntry
dict_entry
p5207
(dp5208
g5
L160447L
sg6
I6
sbsS'land'
p5209
(iDictEntry
dict_entry
p5210
(dp5211
g5
L246967L
sg6
I1
sbsS'wafer'
p5212
(iDictEntry
dict_entry
p5213
(dp5214
g5
L529939L
sg6
I2
sbsS'electromagnet'
p5215
(iDictEntry
dict_entry
p5216
(dp5217
g5
L150316L
sg6
I2
sbsS'dismantl'
p5218
(iDictEntry
dict_entry
p5219
(dp5220
g5
L134255L
sg6
I1
sbsS'discrimin'
p5221
(iDictEntry
dict_entry
p5222
(dp5223
g5
L133452L
sg6
I1
sbsS'2000'
p5224
(iDictEntry
dict_entry
p5225
(dp5226
g5
L1232L
sg6
I1
sbsS'sorbent'
p5227
(iDictEntry
dict_entry
p5228
(dp5229
g5
L447683L
sg6
I2
sbsS'seawe'
p5230
(iDictEntry
dict_entry
p5231
(dp5232
g5
L416595L
sg6
I1
sbsS'fresh'
p5233
(iDictEntry
dict_entry
p5234
(dp5235
g5
L195631L
sg6
I3
sbsS'liquefi'
p5236
(iDictEntry
dict_entry
p5237
(dp5238
g5
L256081L
sg6
I2
sbsS'partial'
p5239
(iDictEntry
dict_entry
p5240
(dp5241
g5
L331129L
sg6
I12
sbsS'edg'
p5242
(iDictEntry
dict_entry
p5243
(dp5244
g5
L144948L
sg6
I3
sbsS'queri'
p5245
(iDictEntry
dict_entry
p5246
(dp5247
g5
L384137L
sg6
I3
sbsS'cobalt'
p5248
(iDictEntry
dict_entry
p5249
(dp5250
g5
L78528L
sg6
I1
sbsS'ammonia'
p5251
(iDictEntry
dict_entry
p5252
(dp5253
g5
L19165L
sg6
I4
sbsS'compact'
p5254
(iDictEntry
dict_entry
p5255
(dp5256
g5
L83817L
sg6
I1
sbsS'handgrip'
p5257
(iDictEntry
dict_entry
p5258
(dp5259
g5
L208958L
sg6
I1
sbsS'sensit'
p5260
(iDictEntry
dict_entry
p5261
(dp5262
g5
L420948L
sg6
I4
sbsS'DFA'
p5263
(iDictEntry
dict_entry
p5264
(dp5265
g5
L125177L
sg6
I1
sbsS'elsewher'
p5266
(iDictEntry
dict_entry
p5267
(dp5268
g5
L152506L
sg6
I3
sbsS'friendli'
p5269
(iDictEntry
dict_entry
p5270
(dp5271
g5
L195864L
sg6
I1
sbsS'send'
p5272
(iDictEntry
dict_entry
p5273
(dp5274
g5
L420733L
sg6
I3
sbsS'organophil'
p5275
(iDictEntry
dict_entry
p5276
(dp5277
g5
L322229L
sg6
I1
sbsS'granular'
p5278
(iDictEntry
dict_entry
p5279
(dp5280
g5
L206005L
sg6
I2
sbsS'spectromet'
p5281
(iDictEntry
dict_entry
p5282
(dp5283
g5
L450451L
sg6
I1
sbsS'stabli'
p5284
(iDictEntry
dict_entry
p5285
(dp5286
g5
L452821L
sg6
I3
sbsS'sent'
p5287
(iDictEntry
dict_entry
p5288
(dp5289
g5
L421317L
sg6
I1
sbsS'passiv'
p5290
(iDictEntry
dict_entry
p5291
(dp5292
g5
L335390L
sg6
I2
sbsS'deactiv'
p5293
(iDictEntry
dict_entry
p5294
(dp5295
g5
L113656L
sg6
I1
sbsS'disclos'
p5296
(iDictEntry
dict_entry
p5297
(dp5298
g5
L131850L
sg6
I26
sbsS'wave'
p5299
(iDictEntry
dict_entry
p5300
(dp5301
g5
L544797L
sg6
I5
sbsS'electron'
p5302
(iDictEntry
dict_entry
p5303
(dp5304
g5
L150461L
sg6
I12
sbsS'volum'
p5305
(iDictEntry
dict_entry
p5306
(dp5307
g5
L529347L
sg6
I9
sbsS'trough'
p5308
(iDictEntry
dict_entry
p5309
(dp5310
g5
L508745L
sg6
I2
sbsS'cellular'
p5311
(iDictEntry
dict_entry
p5312
(dp5313
g5
L66436L
sg6
I2
sbsS'electrod'
p5314
(iDictEntry
dict_entry
p5315
(dp5316
g5
L149715L
sg6
I2
sbsS'seawat'
p5317
(iDictEntry
dict_entry
p5318
(dp5319
g5
L416488L
sg6
I2
sbsS'relev'
p5320
(iDictEntry
dict_entry
p5321
(dp5322
g5
L398895L
sg6
I1
sbsS'molar'
p5323
(iDictEntry
dict_entry
p5324
(dp5325
g5
L297771L
sg6
I1
sbsS'button'
p5326
(iDictEntry
dict_entry
p5327
(dp5328
g5
L59741L
sg6
I2
sbsS'inclin'
p5329
(iDictEntry
dict_entry
p5330
(dp5331
g5
L223872L
sg6
I2
sbsS'caldicellulosiruptor'
p5332
(iDictEntry
dict_entry
p5333
(dp5334
g5
L60418L
sg6
I1
sbsS'hemispher'
p5335
(iDictEntry
dict_entry
p5336
(dp5337
g5
L212057L
sg6
I1
sbsS'vehicl'
p5338
(iDictEntry
dict_entry
p5339
(dp5340
g5
L525038L
sg6
I2
sbsS'smaller'
p5341
(iDictEntry
dict_entry
p5342
(dp5343
g5
L443019L
sg6
I6
sbsS'natur'
p5344
(iDictEntry
dict_entry
p5345
(dp5346
g5
L303019L
sg6
I9
sbsS'biomass'
p5347
(iDictEntry
dict_entry
p5348
(dp5349
g5
L50808L
sg6
I7
sbsS'crop'
p5350
(iDictEntry
dict_entry
p5351
(dp5352
g5
L109490L
sg6
I1
sbsS'synergist'
p5353
(iDictEntry
dict_entry
p5354
(dp5355
g5
L470410L
sg6
I1
sbsS'jump'
p5356
(iDictEntry
dict_entry
p5357
(dp5358
g5
L245112L
sg6
I1
sbsS'fold'
p5359
(iDictEntry
dict_entry
p5360
(dp5361
g5
L188444L
sg6
I4
sbsS'leakag'
p5362
(iDictEntry
dict_entry
p5363
(dp5364
g5
L248785L
sg6
I1
sbsS'video'
p5365
(iDictEntry
dict_entry
p5366
(dp5367
g5
L527406L
sg6
I6
sbsS'acid'
p5368
(iDictEntry
dict_entry
p5369
(dp5370
g5
L5297L
sg6
I7
sbsS'compar'
p5371
(iDictEntry
dict_entry
p5372
(dp5373
g5
L83874L
sg6
I5
sbsS'cell'
p5374
(iDictEntry
dict_entry
p5375
(dp5376
g5
L66064L
sg6
I7
sbsS'microcalcif'
p5377
(iDictEntry
dict_entry
p5378
(dp5379
g5
L291209L
sg6
I1
sbsS'microprocessor'
p5380
(iDictEntry
dict_entry
p5381
(dp5382
g5
L292405L
sg6
I1
sbsS'anticoagul'
p5383
(iDictEntry
dict_entry
p5384
(dp5385
g5
L24154L
sg6
I1
sbsS'bird'
p5386
(iDictEntry
dict_entry
p5387
(dp5388
g5
L51648L
sg6
I4
sbsS'vibrat'
p5389
(iDictEntry
dict_entry
p5390
(dp5391
g5
L527349L
sg6
I1
sbsS'perimet'
p5392
(iDictEntry
dict_entry
p5393
(dp5394
g5
L338142L
sg6
I1
sbsS'denitrifi'
p5395
(iDictEntry
dict_entry
p5396
(dp5397
g5
L117195L
sg6
I3
sbsS'closur'
p5398
(iDictEntry
dict_entry
p5399
(dp5400
g5
L77237L
sg6
I2
sbsS'let'
p5401
(iDictEntry
dict_entry
p5402
(dp5403
g5
L252348L
sg6
I2
sbsS'sink'
p5404
(iDictEntry
dict_entry
p5405
(dp5406
g5
L436043L
sg6
I2
sbsS'vertic'
p5407
(iDictEntry
dict_entry
p5408
(dp5409
g5
L525609L
sg6
I7
sbsS'sinc'
p5410
(iDictEntry
dict_entry
p5411
(dp5412
g5
L435675L
sg6
I2
sbsS'residenti'
p5413
(iDictEntry
dict_entry
p5414
(dp5415
g5
L403927L
sg6
I1
sbsS'convert'
p5416
(iDictEntry
dict_entry
p5417
(dp5418
g5
L105911L
sg6
I6
sbsS'convers'
p5419
(iDictEntry
dict_entry
p5420
(dp5421
g5
L105662L
sg6
I5
sbsS'larger'
p5422
(iDictEntry
dict_entry
p5423
(dp5424
g5
L247397L
sg6
I2
sbsS'repel'
p5425
(iDictEntry
dict_entry
p5426
(dp5427
g5
L402544L
sg6
I2
sbsS'vbu'
p5428
(iDictEntry
dict_entry
p5429
(dp5430
g5
L524765L
sg6
I1
sbsS'implement'
p5431
(iDictEntry
dict_entry
p5432
(dp5433
g5
L222142L
sg6
I7
sbsS'micropor'
p5434
(iDictEntry
dict_entry
p5435
(dp5436
g5
L292329L
sg6
I1
sbsS'chanc'
p5437
(iDictEntry
dict_entry
p5438
(dp5439
g5
L69234L
sg6
I1
sbsS'calibr'
p5440
(iDictEntry
dict_entry
p5441
(dp5442
g5
L60475L
sg6
I1
sbsS'appli'
p5443
(iDictEntry
dict_entry
p5444
(dp5445
g5
L29497L
sg6
I15
sbsS'approxim'
p5446
(iDictEntry
dict_entry
p5447
(dp5448
g5
L30974L
sg6
I2
sbsS'protuber'
p5449
(iDictEntry
dict_entry
p5450
(dp5451
g5
L373892L
sg6
I1
sbsS'foundat'
p5452
(iDictEntry
dict_entry
p5453
(dp5454
g5
L194371L
sg6
I1
sbsS'motor'
p5455
(iDictEntry
dict_entry
p5456
(dp5457
g5
L299057L
sg6
I5
sbsS'buildup'
p5458
(iDictEntry
dict_entry
p5459
(dp5460
g5
L58926L
sg6
I1
sbsS'lime'
p5461
(iDictEntry
dict_entry
p5462
(dp5463
g5
L254876L
sg6
I4
sbsS'fed'
p5464
(iDictEntry
dict_entry
p5465
(dp5466
g5
L172051L
sg6
I5
sbsS'from'
p5467
(iDictEntry
dict_entry
p5468
(dp5469
g5
L195997L
sg6
I1
sbsS'nonsensit'
p5470
(iDictEntry
dict_entry
p5471
(dp5472
g5
L307237L
sg6
I1
sbsS'commun'
p5473
(iDictEntry
dict_entry
p5474
(dp5475
g5
L83099L
sg6
I12
sbsS'solidif'
p5476
(iDictEntry
dict_entry
p5477
(dp5478
g5
L445497L
sg6
I1
sbsS'chromatographi'
p5479
(iDictEntry
dict_entry
p5480
(dp5481
g5
L73068L
sg6
I2
sbsS'oili'
p5482
(iDictEntry
dict_entry
p5483
(dp5484
g5
L313302L
sg6
I2
sbsS'next'
p5485
(iDictEntry
dict_entry
p5486
(dp5487
g5
L305292L
sg6
I1
sbsS'camera'
p5488
(iDictEntry
dict_entry
p5489
(dp5490
g5
L60586L
sg6
I2
sbsS'phasepur'
p5491
(iDictEntry
dict_entry
p5492
(dp5493
g5
L340450L
sg6
I1
sbsS'scleral'
p5494
(iDictEntry
dict_entry
p5495
(dp5496
g5
L414741L
sg6
I1
sbsS'commut'
p5497
(iDictEntry
dict_entry
p5498
(dp5499
g5
L83758L
sg6
I1
sbsS'remaind'
p5500
(iDictEntry
dict_entry
p5501
(dp5502
g5
L399118L
sg6
I1
sbsS'charcoal'
p5503
(iDictEntry
dict_entry
p5504
(dp5505
g5
L70799L
sg6
I1
sbsS'train'
p5506
(iDictEntry
dict_entry
p5507
(dp5508
g5
L499388L
sg6
I1
sbsS'sorb'
p5509
(iDictEntry
dict_entry
p5510
(dp5511
g5
L447626L
sg6
I1
sbsS'actual'
p5512
(iDictEntry
dict_entry
p5513
(dp5514
g5
L7094L
sg6
I3
sbsS'harvest'
p5515
(iDictEntry
dict_entry
p5516
(dp5517
g5
L209979L
sg6
I1
sbsS'retriev'
p5518
(iDictEntry
dict_entry
p5519
(dp5520
g5
L407990L
sg6
I4
sbsS'augment'
p5521
(iDictEntry
dict_entry
p5522
(dp5523
g5
L39081L
sg6
I2
sbsS'ridg'
p5524
(iDictEntry
dict_entry
p5525
(dp5526
g5
L409059L
sg6
I1
sbsS'thin'
p5527
(iDictEntry
dict_entry
p5528
(dp5529
g5
L494046L
sg6
I4
sbsS'drill'
p5530
(iDictEntry
dict_entry
p5531
(dp5532
g5
L141977L
sg6
I1
sbsS'taconit'
p5533
(iDictEntry
dict_entry
p5534
(dp5535
g5
L475386L
sg6
I1
sbsS'meet'
p5536
(iDictEntry
dict_entry
p5537
(dp5538
g5
L278413L
sg6
I1
sbsS'scatter'
p5539
(iDictEntry
dict_entry
p5540
(dp5541
g5
L414554L
sg6
I1
sbsS'control'
p5542
(iDictEntry
dict_entry
p5543
(dp5544
g5
L103823L
sg6
I26
sbsS'slid'
p5545
(iDictEntry
dict_entry
p5546
(dp5547
g5
L437629L
sg6
I1
sbsS'tar'
p5548
(iDictEntry
dict_entry
p5549
(dp5550
g5
L477350L
sg6
I1
sbsS'process'
p5551
(iDictEntry
dict_entry
p5552
(dp5553
g5
L364087L
sg6
I66
sbsS'lock'
p5554
(iDictEntry
dict_entry
p5555
(dp5556
g5
L260461L
sg6
I5
sbsS'high'
p5557
(iDictEntry
dict_entry
p5558
(dp5559
g5
L212659L
sg6
I16
sbsS'slit'
p5560
(iDictEntry
dict_entry
p5561
(dp5562
g5
L438033L
sg6
I1
sbsS'agenc'
p5563
(iDictEntry
dict_entry
p5564
(dp5565
g5
L10996L
sg6
I1
sbsS'acclim'
p5566
(iDictEntry
dict_entry
p5567
(dp5568
g5
L3385L
sg6
I1
sbsS'sytstem'
p5569
(iDictEntry
dict_entry
p5570
(dp5571
g5
L475222L
sg6
I1
sbsS'surfac'
p5572
(iDictEntry
dict_entry
p5573
(dp5574
g5
L466983L
sg6
I30
sbsS'permeat'
p5575
(iDictEntry
dict_entry
p5576
(dp5577
g5
L338861L
sg6
I4
sbsS'acycl'
p5578
(iDictEntry
dict_entry
p5579
(dp5580
g5
L7259L
sg6
I1
sbsS'lamp'
p5581
(iDictEntry
dict_entry
p5582
(dp5583
g5
L246841L
sg6
I2
sbsS'forest'
p5584
(iDictEntry
dict_entry
p5585
(dp5586
g5
L190765L
sg6
I1
sbsS'dissolv'
p5587
(iDictEntry
dict_entry
p5588
(dp5589
g5
L136745L
sg6
I15
sbsS'instead'
p5590
(iDictEntry
dict_entry
p5591
(dp5592
g5
L236124L
sg6
I1
sbsS'filament'
p5593
(iDictEntry
dict_entry
p5594
(dp5595
g5
L174190L
sg6
I3
sbsS'circular'
p5596
(iDictEntry
dict_entry
p5597
(dp5598
g5
L73784L
sg6
I2
sbsS'tension'
p5599
(iDictEntry
dict_entry
p5600
(dp5601
g5
L479063L
sg6
I1
sbsS'attend'
p5602
(iDictEntry
dict_entry
p5603
(dp5604
g5
L38544L
sg6
I1
sbsS'aerob'
p5605
(iDictEntry
dict_entry
p5606
(dp5607
g5
L10434L
sg6
I6
sbsS'greenroof'
p5608
(iDictEntry
dict_entry
p5609
(dp5610
g5
L206779L
sg6
I1
sbsS'electroform'
p5611
(iDictEntry
dict_entry
p5612
(dp5613
g5
L149824L
sg6
I1
sbsS'notebook'
p5614
(iDictEntry
dict_entry
p5615
(dp5616
g5
L308067L
sg6
I1
sbsS'topograph'
p5617
(iDictEntry
dict_entry
p5618
(dp5619
g5
L498393L
sg6
I1
sbsS'physic'
p5620
(iDictEntry
dict_entry
p5621
(dp5622
g5
L341051L
sg6
I7
sbsS'essenti'
p5623
(iDictEntry
dict_entry
p5624
(dp5625
g5
L162094L
sg6
I7
sbsS'light'
p5626
(iDictEntry
dict_entry
p5627
(dp5628
g5
L253744L
sg6
I4
sbsS'counter'
p5629
(iDictEntry
dict_entry
p5630
(dp5631
g5
L107910L
sg6
I1
sbsS'liner'
p5632
(iDictEntry
dict_entry
p5633
(dp5634
g5
L255699L
sg6
I1
sbsS'One'
p5635
(iDictEntry
dict_entry
p5636
(dp5637
g5
Nsg6
NsbsS'issu'
p5638
(iDictEntry
dict_entry
p5639
(dp5640
g5
L243950L
sg6
I1
sbsS'allow'
p5641
(iDictEntry
dict_entry
p5642
(dp5643
g5
L15300L
sg6
I15
sbsS'alloy'
p5644
(iDictEntry
dict_entry
p5645
(dp5646
g5
L16095L
sg6
I2
sbsS'move'
p5647
(iDictEntry
dict_entry
p5648
(dp5649
g5
L300194L
sg6
I8
sbsS'meter'
p5650
(iDictEntry
dict_entry
p5651
(dp5652
g5
L281826L
sg6
I1
sbsS'anthracit'
p5653
(iDictEntry
dict_entry
p5654
(dp5655
g5
L23954L
sg6
I1
sbsS'neodymium'
p5656
(iDictEntry
dict_entry
p5657
(dp5658
g5
L304309L
sg6
I1
sbsS'turntabl'
p5659
(iDictEntry
dict_entry
p5660
(dp5661
g5
L510113L
sg6
I1
sbsS'movabl'
p5662
(iDictEntry
dict_entry
p5663
(dp5664
g5
L299962L
sg6
I4
sbsS'outer'
p5665
(iDictEntry
dict_entry
p5666
(dp5667
g5
L323773L
sg6
I6
sbsS'inlet'
p5668
(iDictEntry
dict_entry
p5669
(dp5670
g5
L232624L
sg6
I15
sbsS'riprap'
p5671
(iDictEntry
dict_entry
p5672
(dp5673
g5
L409684L
sg6
I1
sbsS'fluidiz'
p5674
(iDictEntry
dict_entry
p5675
(dp5676
g5
L187772L
sg6
I1
sbsS'fluidic'
p5677
(iDictEntry
dict_entry
p5678
(dp5679
g5
L187715L
sg6
I1
sbsS'criterion'
p5680
(iDictEntry
dict_entry
p5681
(dp5682
g5
L109327L
sg6
I1
sbsS'therefor'
p5683
(iDictEntry
dict_entry
p5684
(dp5685
g5
L489762L
sg6
I9
sbsS'hydroxyapatit'
p5686
(iDictEntry
dict_entry
p5687
(dp5688
g5
L218889L
sg6
I1
sbsS'flex'
p5689
(iDictEntry
dict_entry
p5690
(dp5691
g5
L183041L
sg6
I1
sbsS'microbiolog'
p5692
(iDictEntry
dict_entry
p5693
(dp5694
g5
L290789L
sg6
I3
sbsS'junction'
p5695
(iDictEntry
dict_entry
p5696
(dp5697
g5
L245169L
sg6
I1
sbsS'greater'
p5698
(iDictEntry
dict_entry
p5699
(dp5700
g5
L206396L
sg6
I5
sbsS'handl'
p5701
(iDictEntry
dict_entry
p5702
(dp5703
g5
L209015L
sg6
I11
sbsS'auto'
p5704
(iDictEntry
dict_entry
p5705
(dp5706
g5
L39188L
sg6
I1
sbsS'launder'
p5707
(iDictEntry
dict_entry
p5708
(dp5709
g5
L247561L
sg6
I4
sbsS'tile'
p5710
(iDictEntry
dict_entry
p5711
(dp5712
g5
L496029L
sg6
I1
sbsS'facilit'
p5713
(iDictEntry
dict_entry
p5714
(dp5715
g5
L170182L
sg6
I3
sbsS'front'
p5716
(iDictEntry
dict_entry
p5717
(dp5718
g5
L196054L
sg6
I6
sbsS'day'
p5719
(iDictEntry
dict_entry
p5720
(dp5721
g5
L113549L
sg6
I2
sbsS'extracorpor'
p5722
(iDictEntry
dict_entry
p5723
(dp5724
g5
L167940L
sg6
I1
sbsS'aerat'
p5725
(iDictEntry
dict_entry
p5726
(dp5727
g5
L9578L
sg6
I15
sbsS'trap'
p5728
(iDictEntry
dict_entry
p5729
(dp5730
g5
L500430L
sg6
I1
sbsS'beneath'
p5731
(iDictEntry
dict_entry
p5732
(dp5733
g5
L47820L
sg6
I2
sbsS'tray'
p5734
(iDictEntry
dict_entry
p5735
(dp5736
g5
L500620L
sg6
I1
sbsS'upward'
p5737
(iDictEntry
dict_entry
p5738
(dp5739
g5
L515434L
sg6
I4
sbsS'subset'
p5740
(iDictEntry
dict_entry
p5741
(dp5742
g5
L460795L
sg6
I2
sbsS'soften'
p5743
(iDictEntry
dict_entry
p5744
(dp5745
g5
L444076L
sg6
I1
sbsS'144'
p5746
(iDictEntry
dict_entry
p5747
(dp5748
g5
L1056L
sg6
I1
sbsS'sandi'
p5749
(iDictEntry
dict_entry
p5750
(dp5751
g5
L413766L
sg6
I1
sbsS'static'
p5752
(iDictEntry
dict_entry
p5753
(dp5754
g5
L453643L
sg6
I3
sbsS'geiger'
p5755
(iDictEntry
dict_entry
p5756
(dp5757
g5
L200849L
sg6
I1
sbsS'fluctuat'
p5758
(iDictEntry
dict_entry
p5759
(dp5760
g5
L185965L
sg6
I1
sbsS'tubular'
p5761
(iDictEntry
dict_entry
p5762
(dp5763
g5
L509514L
sg6
I1
sbsS'special'
p5764
(iDictEntry
dict_entry
p5765
(dp5766
g5
L449924L
sg6
I3
sbsS'variabl'
p5767
(iDictEntry
dict_entry
p5768
(dp5769
g5
L524236L
sg6
I1
sbsS'matrix'
p5770
(iDictEntry
dict_entry
p5771
(dp5772
g5
L271515L
sg6
I2
sbsS'bag'
p5773
(iDictEntry
dict_entry
p5774
(dp5775
g5
L43019L
sg6
I1
sbsS'submerg'
p5776
(iDictEntry
dict_entry
p5777
(dp5778
g5
L460369L
sg6
I4
sbsS'discharg'
p5779
(iDictEntry
dict_entry
p5780
(dp5781
g5
L130467L
sg6
I26
sbsS'mate'
p5782
(iDictEntry
dict_entry
p5783
(dp5784
g5
L268830L
sg6
I1
sbsS'suitabl'
p5785
(iDictEntry
dict_entry
p5786
(dp5787
g5
L463497L
sg6
I7
sbsS'rel'
p5788
(iDictEntry
dict_entry
p5789
(dp5790
g5
L396582L
sg6
I10
sbsS'hardwar'
p5791
(iDictEntry
dict_entry
p5792
(dp5793
g5
L209768L
sg6
I1
sbsS'submers'
p5794
(iDictEntry
dict_entry
p5795
(dp5796
g5
L460580L
sg6
I1
sbsS'plural'
p5797
(iDictEntry
dict_entry
p5798
(dp5799
g5
L344830L
sg6
I20
sbsS'matric'
p5800
(iDictEntry
dict_entry
p5801
(dp5802
g5
L271464L
sg6
I1
sbsS'common'
p5803
(iDictEntry
dict_entry
p5804
(dp5805
g5
L82992L
sg6
I2
sbsS'rotor'
p5806
(iDictEntry
dict_entry
p5807
(dp5808
g5
L411156L
sg6
I1
sbsS'shut'
p5809
(iDictEntry
dict_entry
p5810
(dp5811
g5
L432553L
sg6
I1
sbsS'insid'
p5812
(iDictEntry
dict_entry
p5813
(dp5814
g5
L235155L
sg6
I4
sbsS'manipul'
p5815
(iDictEntry
dict_entry
p5816
(dp5817
g5
L266807L
sg6
I3
sbsS'disintegr'
p5818
(iDictEntry
dict_entry
p5819
(dp5820
g5
L133978L
sg6
I1
sbsS'releas'
p5821
(iDictEntry
dict_entry
p5822
(dp5823
g5
L398472L
sg6
I8
sbsS'ioniz'
p5824
(iDictEntry
dict_entry
p5825
(dp5826
g5
L243039L
sg6
I2
sbsS'yard'
p5827
(iDictEntry
dict_entry
p5828
(dp5829
g5
L551924L
sg6
I1
sbsS'airflow'
p5830
(iDictEntry
dict_entry
p5831
(dp5832
g5
L14207L
sg6
I1
sbsS'unwant'
p5833
(iDictEntry
dict_entry
p5834
(dp5835
g5
L514353L
sg6
I2
sbsS'timer'
p5836
(iDictEntry
dict_entry
p5837
(dp5838
g5
L497040L
sg6
I1
sbsS'keep'
p5839
(iDictEntry
dict_entry
p5840
(dp5841
g5
L245340L
sg6
I1
sbsS'length'
p5842
(iDictEntry
dict_entry
p5843
(dp5844
g5
L252027L
sg6
I6
sbsS'outsid'
p5845
(iDictEntry
dict_entry
p5846
(dp5847
g5
L325530L
sg6
I7
sbsS'geometri'
p5848
(iDictEntry
dict_entry
p5849
(dp5850
g5
L204727L
sg6
I2
sbsS'retain'
p5851
(iDictEntry
dict_entry
p5852
(dp5853
g5
L407428L
sg6
I6
sbsS'ionic'
p5854
(iDictEntry
dict_entry
p5855
(dp5856
g5
L242913L
sg6
I2
sbsS'softwar'
p5857
(iDictEntry
dict_entry
p5858
(dp5859
g5
L444133L
sg6
I2
sbsS'airborn'
p5860
(iDictEntry
dict_entry
p5861
(dp5862
g5
L14126L
sg6
I1
sbsS'qualiti'
p5863
(iDictEntry
dict_entry
p5864
(dp5865
g5
L383282L
sg6
I4
sbsS'scene'
p5866
(iDictEntry
dict_entry
p5867
(dp5868
g5
L414613L
sg6
I2
sbsS'nucleosid'
p5869
(iDictEntry
dict_entry
p5870
(dp5871
g5
L310027L
sg6
I1
sbsS'art'
p5872
(iDictEntry
dict_entry
p5873
(dp5874
g5
L34169L
sg6
I2
sbsS'facil'
p5875
(iDictEntry
dict_entry
p5876
(dp5877
g5
L169818L
sg6
I7
sbsS'nanofib'
p5878
(iDictEntry
dict_entry
p5879
(dp5880
g5
L302499L
sg6
I3
sbsS'outwardli'
p5881
(iDictEntry
dict_entry
p5882
(dp5883
g5
L326007L
sg6
I1
sbsS'system'
p5884
(iDictEntry
dict_entry
p5885
(dp5886
g5
L470796L
sg6
I70
sbsS'eighth'
p5887
(iDictEntry
dict_entry
p5888
(dp5889
g5
L147548L
sg6
I1
sbsS'attach'
p5890
(iDictEntry
dict_entry
p5891
(dp5892
g5
L37844L
sg6
I11
sbsS'attack'
p5893
(iDictEntry
dict_entry
p5894
(dp5895
g5
L38439L
sg6
I2
sbsS'termin'
p5896
(iDictEntry
dict_entry
p5897
(dp5898
g5
L479230L
sg6
I5
sbsS'final'
p5899
(iDictEntry
dict_entry
p5900
(dp5901
g5
L177707L
sg6
I2
sbsS'boil'
p5902
(iDictEntry
dict_entry
p5903
(dp5904
g5
L54147L
sg6
I1
sbsS'shell'
p5905
(iDictEntry
dict_entry
p5906
(dp5907
g5
L432065L
sg6
I1
sbsS'electrophoret'
p5908
(iDictEntry
dict_entry
p5909
(dp5910
g5
L151163L
sg6
I1
sbsS'fuzzi'
p5911
(iDictEntry
dict_entry
p5912
(dp5913
g5
L197793L
sg6
I1
sbsS'methodolog'
p5914
(iDictEntry
dict_entry
p5915
(dp5916
g5
L289868L
sg6
I1
sbsS'transistor'
p5917
(iDictEntry
dict_entry
p5918
(dp5919
g5
L499928L
sg6
I1
sbsS'tissu'
p5920
(iDictEntry
dict_entry
p5921
(dp5922
g5
L497268L
sg6
I1
sbsS'diminish'
p5923
(iDictEntry
dict_entry
p5924
(dp5925
g5
L128055L
sg6
I1
sbsS'waist'
p5926
(iDictEntry
dict_entry
p5927
(dp5928
g5
L530065L
sg6
I1
sbsS'steel'
p5929
(iDictEntry
dict_entry
p5930
(dp5931
g5
L454248L
sg6
I2
sbsS'embodi'
p5932
(iDictEntry
dict_entry
p5933
(dp5934
g5
L152712L
sg6
I21
sbsS'wet'
p5935
(iDictEntry
dict_entry
p5936
(dp5937
g5
L546409L
sg6
I6
sbsS'structur'
p5938
(iDictEntry
dict_entry
p5939
(dp5940
g5
L458690L
sg6
I14
sbsS'arc'
p5941
(iDictEntry
dict_entry
p5942
(dp5943
g5
L32559L
sg6
I1
sbsS'inanim'
p5944
(iDictEntry
dict_entry
p5945
(dp5946
g5
L223645L
sg6
I1
sbsS'collaps'
p5947
(iDictEntry
dict_entry
p5948
(dp5949
g5
L79301L
sg6
I1
sbsS'bind'
p5950
(iDictEntry
dict_entry
p5951
(dp5952
g5
L48206L
sg6
I1
sbsS'pyrolysi'
p5953
(iDictEntry
dict_entry
p5954
(dp5955
g5
L383093L
sg6
I1
sbsS'exhibit'
p5956
(iDictEntry
dict_entry
p5957
(dp5958
g5
L165907L
sg6
I2
sbsS'deliveri'
p5959
(iDictEntry
dict_entry
p5960
(dp5961
g5
L116377L
sg6
I2
sbsS'fume'
p5962
(iDictEntry
dict_entry
p5963
(dp5964
g5
L196992L
sg6
I1
sbsS'barg'
p5965
(iDictEntry
dict_entry
p5966
(dp5967
g5
L43647L
sg6
I1
sbsS'clip'
p5968
(iDictEntry
dict_entry
p5969
(dp5970
g5
L76260L
sg6
I1
sbsS'viewer'
p5971
(iDictEntry
dict_entry
p5972
(dp5973
g5
L528013L
sg6
I1
sbsS'thereaft'
p5974
(iDictEntry
dict_entry
p5975
(dp5976
g5
L489015L
sg6
I3
sbsS'diffusor'
p5977
(iDictEntry
dict_entry
p5978
(dp5979
g5
L126836L
sg6
I1
sbsS'correspond'
p5980
(iDictEntry
dict_entry
p5981
(dp5982
g5
L107089L
sg6
I9
sbsS'coher'
p5983
(iDictEntry
dict_entry
p5984
(dp5985
g5
L78913L
sg6
I1
sbsS'disadvantag'
p5986
(iDictEntry
dict_entry
p5987
(dp5988
g5
L130145L
sg6
I1
sbsS'need'
p5989
(iDictEntry
dict_entry
p5990
(dp5991
g5
L303984L
sg6
I2
sbsS'element'
p5992
(iDictEntry
dict_entry
p5993
(dp5994
g5
L151515L
sg6
I9
sbsS'screw'
p5995
(iDictEntry
dict_entry
p5996
(dp5997
g5
L415066L
sg6
I3
sbsS'seago'
p5998
(iDictEntry
dict_entry
p5999
(dp6000
g5
L415559L
sg6
I1
sbsS'Oil'
p6001
(iDictEntry
dict_entry
p6002
(dp6003
g5
L312675L
sg6
I10
sbsS'bacterium'
p6004
(iDictEntry
dict_entry
p6005
(dp6006
g5
L42746L
sg6
I1
sbsS'contour'
p6007
(iDictEntry
dict_entry
p6008
(dp6009
g5
L103652L
sg6
I1
sbsS'mix'
p6010
(iDictEntry
dict_entry
p6011
(dp6012
g5
L293899L
sg6
I25
sbsS'dehumidif'
p6013
(iDictEntry
dict_entry
p6014
(dp6015
g5
L115828L
sg6
I1
sbsS'discret'
p6016
(iDictEntry
dict_entry
p6017
(dp6018
g5
L133395L
sg6
I1
sbsS'hydrocarbon'
p6019
(iDictEntry
dict_entry
p6020
(dp6021
g5
L217710L
sg6
I4
sbsS'divert'
p6022
(iDictEntry
dict_entry
p6023
(dp6024
g5
L138806L
sg6
I3
sbsS'graviti'
p6025
(iDictEntry
dict_entry
p6026
(dp6027
g5
L206287L
sg6
I2
sbsS'singl'
p6028
(iDictEntry
dict_entry
p6029
(dp6030
g5
L435784L
sg6
I5
sbsS'combat'
p6031
(iDictEntry
dict_entry
p6032
(dp6033
g5
L81295L
sg6
I2
sbsS'deploy'
p6034
(iDictEntry
dict_entry
p6035
(dp6036
g5
L118064L
sg6
I1
sbsS'pressuriz'
p6037
(iDictEntry
dict_entry
p6038
(dp6039
g5
L362231L
sg6
I1
sbsS'multitud'
p6040
(iDictEntry
dict_entry
p6041
(dp6042
g5
L301708L
sg6
I2
sbsS'hydroxyl'
p6043
(iDictEntry
dict_entry
p6044
(dp6045
g5
L218965L
sg6
I1
sbsS'segment'
p6046
(iDictEntry
dict_entry
p6047
(dp6048
g5
L418960L
sg6
I1
sbsS'class'
p6049
(iDictEntry
dict_entry
p6050
(dp6051
g5
L74220L
sg6
I2
sbsS'homogen'
p6052
(iDictEntry
dict_entry
p6053
(dp6054
g5
L214889L
sg6
I2
sbsS'eject'
p6055
(iDictEntry
dict_entry
p6056
(dp6057
g5
L147922L
sg6
I2
sbsS'diatomac'
p6058
(iDictEntry
dict_entry
p6059
(dp6060
g5
L125575L
sg6
I2
sbsS'face'
p6061
(iDictEntry
dict_entry
p6062
(dp6063
g5
L169445L
sg6
I6
sbsS'pipe'
p6064
(iDictEntry
dict_entry
p6065
(dp6066
g5
L341767L
sg6
I8
sbsS'400i'
p6067
(iDictEntry
dict_entry
p6068
(dp6069
g5
L1797L
sg6
I1
sbsS'400k'
p6070
(iDictEntry
dict_entry
p6071
(dp6072
g5
L1856L
sg6
I1
sbsS'determin'
p6073
(iDictEntry
dict_entry
p6074
(dp6075
g5
L121713L
sg6
I7
sbsS'fowler'
p6076
(iDictEntry
dict_entry
p6077
(dp6078
g5
L194485L
sg6
I1
sbsS'satur'
p6079
(iDictEntry
dict_entry
p6080
(dp6081
g5
L413949L
sg6
I6
sbsS'biosolid'
p6082
(iDictEntry
dict_entry
p6083
(dp6084
g5
L51515L
sg6
I1
sbsS'apparatu'
p6085
(iDictEntry
dict_entry
p6086
(dp6087
g5
L24637L
sg6
I74
sbsS'inexpens'
p6088
(iDictEntry
dict_entry
p6089
(dp6090
g5
L231228L
sg6
I4
sbsS'thicken'
p6091
(iDictEntry
dict_entry
p6092
(dp6093
g5
L493989L
sg6
I1
sbsS'recess'
p6094
(iDictEntry
dict_entry
p6095
(dp6096
g5
L390029L
sg6
I2
sbsS'text'
p6097
(iDictEntry
dict_entry
p6098
(dp6099
g5
L479748L
sg6
I1
sbsS'perfor'
p6100
(iDictEntry
dict_entry
p6101
(dp6102
g5
L337344L
sg6
I3
sbsS'bring'
p6103
(iDictEntry
dict_entry
p6104
(dp6105
g5
L56453L
sg6
I2
sbsS'brine'
p6106
(iDictEntry
dict_entry
p6107
(dp6108
g5
L56396L
sg6
I1
sbsS'inductor'
p6109
(iDictEntry
dict_entry
p6110
(dp6111
g5
L230277L
sg6
I1
sbsS'kraft'
p6112
(iDictEntry
dict_entry
p6113
(dp6114
g5
L246327L
sg6
I1
sbsS'locat'
p6115
(iDictEntry
dict_entry
p6116
(dp6117
g5
L259662L
sg6
I15
sbsS'tire'
p6118
(iDictEntry
dict_entry
p6119
(dp6120
g5
L497211L
sg6
I1
sbsS'denatur'
p6121
(iDictEntry
dict_entry
p6122
(dp6123
g5
L116617L
sg6
I1
sbsS'dispers'
p6124
(iDictEntry
dict_entry
p6125
(dp6126
g5
L134469L
sg6
I13
sbsS'manufactur'
p6127
(iDictEntry
dict_entry
p6128
(dp6129
g5
L267251L
sg6
I4
sbsS'micron'
p6130
(iDictEntry
dict_entry
p6131
(dp6132
g5
L291637L
sg6
I2
sbsS'12V'
p6133
(iDictEntry
dict_entry
p6134
(dp6135
g5
L999L
sg6
I1
sbsS'microb'
p6136
(iDictEntry
dict_entry
p6137
(dp6138
g5
L290554L
sg6
I1
sbsS'sulfur'
p6139
(iDictEntry
dict_entry
p6140
(dp6141
g5
L463986L
sg6
I2
sbsS'local'
p6142
(iDictEntry
dict_entry
p6143
(dp6144
g5
L259502L
sg6
I3
sbsS'equilibrium'
p6145
(iDictEntry
dict_entry
p6146
(dp6147
g5
L160953L
sg6
I3
sbsS'vigor'
p6148
(iDictEntry
dict_entry
p6149
(dp6150
g5
L528072L
sg6
I1
sbsS'lobe'
p6151
(iDictEntry
dict_entry
p6152
(dp6153
g5
L259445L
sg6
I1
sbsS'autom'
p6154
(iDictEntry
dict_entry
p6155
(dp6156
g5
L39247L
sg6
I3
sbsS'120'
p6157
(iDictEntry
dict_entry
p6158
(dp6159
g5
L639L
sg6
I2
sbsS'beam'
p6160
(iDictEntry
dict_entry
p6161
(dp6162
g5
L47172L
sg6
I2
sbsS'theori'
p6163
(iDictEntry
dict_entry
p6164
(dp6165
g5
L488527L
sg6
I1
sbsS'124'
p6166
(iDictEntry
dict_entry
p6167
(dp6168
g5
L813L
sg6
I1
sbsS'126'
p6169
(iDictEntry
dict_entry
p6170
(dp6171
g5
L875L
sg6
I1
sbsS'increas'
p6172
(iDictEntry
dict_entry
p6173
(dp6174
g5
L229327L
sg6
I5
sbsS'GPU'
p6175
(iDictEntry
dict_entry
p6176
(dp6177
g5
L205683L
sg6
I1
sbsS'wring'
p6178
(iDictEntry
dict_entry
p6179
(dp6180
g5
L551865L
sg6
I1
sbsS'substrata'
p6181
(iDictEntry
dict_entry
p6182
(dp6183
g5
L462464L
sg6
I1
sbsS'enabl'
p6184
(iDictEntry
dict_entry
p6185
(dp6186
g5
L154789L
sg6
I9
sbsS'organ'
p6187
(iDictEntry
dict_entry
p6188
(dp6189
g5
L320079L
sg6
I37
sbsS'bisect'
p6190
(iDictEntry
dict_entry
p6191
(dp6192
g5
L51849L
sg6
I1
sbsS'whether'
p6193
(iDictEntry
dict_entry
p6194
(dp6195
g5
L548235L
sg6
I4
sbsS'integr'
p6196
(iDictEntry
dict_entry
p6197
(dp6198
g5
L236377L
sg6
I4
sbsS'partit'
p6199
(iDictEntry
dict_entry
p6200
(dp6201
g5
L334212L
sg6
I1
sbsS'contain'
p6202
(iDictEntry
dict_entry
p6203
(dp6204
g5
L98972L
sg6
I53
sbsS'mesopor'
p6205
(iDictEntry
dict_entry
p6206
(dp6207
g5
L280750L
sg6
I2
sbsS'sediment'
p6208
(iDictEntry
dict_entry
p6209
(dp6210
g5
L418787L
sg6
I1
sbsS'view'
p6211
(iDictEntry
dict_entry
p6212
(dp6213
g5
L527778L
sg6
I4
sbsS'unison'
p6214
(iDictEntry
dict_entry
p6215
(dp6216
g5
L513075L
sg6
I1
sbsS'conform'
p6217
(iDictEntry
dict_entry
p6218
(dp6219
g5
L94815L
sg6
I3
sbsS'arsen'
p6220
(iDictEntry
dict_entry
p6221
(dp6222
g5
L34043L
sg6
I2
sbsS'nitrogen'
p6223
(iDictEntry
dict_entry
p6224
(dp6225
g5
L306130L
sg6
I7
sbsS'expel'
p6226
(iDictEntry
dict_entry
p6227
(dp6228
g5
L166758L
sg6
I2
sbsS'municip'
p6229
(iDictEntry
dict_entry
p6230
(dp6231
g5
L301817L
sg6
I3
sbsS'frame'
p6232
(iDictEntry
dict_entry
p6233
(dp6234
g5
L194773L
sg6
I6
sbsS'coli'
p6235
(iDictEntry
dict_entry
p6236
(dp6237
g5
L79187L
sg6
I1
sbsS'emulsifi'
p6238
(iDictEntry
dict_entry
p6239
(dp6240
g5
L154438L
sg6
I7
sbsS'elast'
p6241
(iDictEntry
dict_entry
p6242
(dp6243
g5
L148031L
sg6
I2
sbsS'computer'
p6244
(iDictEntry
dict_entry
p6245
(dp6246
g5
L92099L
sg6
I1
sbsS'powder'
p6247
(iDictEntry
dict_entry
p6248
(dp6249
g5
L353487L
sg6
I5
sbsS'reminer'
p6250
(iDictEntry
dict_entry
p6251
(dp6252
g5
L399423L
sg6
I1
sbsS'particl'
p6253
(iDictEntry
dict_entry
p6254
(dp6255
g5
L331766L
sg6
I19
sbsS'entranc'
p6256
(iDictEntry
dict_entry
p6257
(dp6258
g5
L159671L
sg6
I1
sbsS'wire'
p6259
(iDictEntry
dict_entry
p6260
(dp6261
g5
L548925L
sg6
I1
sbsS'pattern'
p6262
(iDictEntry
dict_entry
p6263
(dp6264
g5
L336248L
sg6
I5
sbsS'favor'
p6265
(iDictEntry
dict_entry
p6266
(dp6267
g5
L170924L
sg6
I3
sbsS'state'
p6268
(iDictEntry
dict_entry
p6269
(dp6270
g5
L453324L
sg6
I6
sbsS'crude'
p6271
(iDictEntry
dict_entry
p6272
(dp6273
g5
L109654L
sg6
I1
sbsS'chemic'
p6274
(iDictEntry
dict_entry
p6275
(dp6276
g5
L71365L
sg6
I22
sbsS'tent'
p6277
(iDictEntry
dict_entry
p6278
(dp6279
g5
L479119L
sg6
I1
sbsS'bed'
p6280
(iDictEntry
dict_entry
p6281
(dp6282
g5
L47495L
sg6
I4
sbsS'reinforc'
p6283
(iDictEntry
dict_entry
p6284
(dp6285
g5
L396350L
sg6
I2
sbsS'coval'
p6286
(iDictEntry
dict_entry
p6287
(dp6288
g5
L108302L
sg6
I1
sbsS'entir'
p6289
(iDictEntry
dict_entry
p6290
(dp6291
g5
L159227L
sg6
I6
sbsS'lecithin'
p6292
(iDictEntry
dict_entry
p6293
(dp6294
g5
L251865L
sg6
I2
sbsS'key'
p6295
(iDictEntry
dict_entry
p6296
(dp6297
g5
Nsg6
NsbsS'addit'
p6298
(iDictEntry
dict_entry
p6299
(dp6300
g5
L7744L
sg6
I9
sbsS'effluent'
p6301
(iDictEntry
dict_entry
p6302
(dp6303
g5
L146808L
sg6
I12
sbsS'instant'
p6304
(iDictEntry
dict_entry
p6305
(dp6306
g5
L236071L
sg6
I1
sbsS'isopropanol'
p6307
(iDictEntry
dict_entry
p6308
(dp6309
g5
L243893L
sg6
I1
sbsS'canopi'
p6310
(iDictEntry
dict_entry
p6311
(dp6312
g5
L60989L
sg6
I1
sbsS'equal'
p6313
(iDictEntry
dict_entry
p6314
(dp6315
g5
L160847L
sg6
I2
sbsS'etc'
p6316
(iDictEntry
dict_entry
p6317
(dp6318
g5
L162840L
sg6
I2
sbsS'admit'
p6319
(iDictEntry
dict_entry
p6320
(dp6321
g5
L9073L
sg6
I1
sbsS'superson'
p6322
(iDictEntry
dict_entry
p6323
(dp6324
g5
L464656L
sg6
I1
sbsS'grain'
p6325
(iDictEntry
dict_entry
p6326
(dp6327
g5
L205841L
sg6
I2
sbsS'swim'
p6328
(iDictEntry
dict_entry
p6329
(dp6330
g5
L470192L
sg6
I1
sbsS'hydrophil'
p6331
(iDictEntry
dict_entry
p6332
(dp6333
g5
L218620L
sg6
I2
sbsS'vent'
p6334
(iDictEntry
dict_entry
p6335
(dp6336
g5
L525223L
sg6
I1
sbsS'wall'
p6337
(iDictEntry
dict_entry
p6338
(dp6339
g5
L530122L
sg6
I8
sbsS'moistur'
p6340
(iDictEntry
dict_entry
p6341
(dp6342
g5
L297613L
sg6
I3
sbsS'solv'
p6343
(iDictEntry
dict_entry
p6344
(dp6345
g5
L446961L
sg6
I1
sbsS'Low'
p6346
(iDictEntry
dict_entry
p6347
(dp6348
g5
Nsg6
NsbsS'wellbor'
p6349
(iDictEntry
dict_entry
p6350
(dp6351
g5
L546352L
sg6
I1
sbsS'respect'
p6352
(iDictEntry
dict_entry
p6353
(dp6354
g5
L405108L
sg6
I13
sbsS'upflow'
p6355
(iDictEntry
dict_entry
p6356
(dp6357
g5
L514522L
sg6
I1
sbsS'USB'
p6358
(iDictEntry
dict_entry
p6359
(dp6360
g5
L515975L
sg6
I1
sbsS'biospher'
p6361
(iDictEntry
dict_entry
p6362
(dp6363
g5
L51591L
sg6
I1
sbsS'anomali'
p6364
(iDictEntry
dict_entry
p6365
(dp6366
g5
L23025L
sg6
I1
sbsS'compos'
p6367
(iDictEntry
dict_entry
p6368
(dp6369
g5
L85472L
sg6
I1
sbsS'compon'
p6370
(iDictEntry
dict_entry
p6371
(dp6372
g5
L84603L
sg6
I16
sbsS'acclimat'
p6373
(iDictEntry
dict_entry
p6374
(dp6375
g5
L3442L
sg6
I1
sbsS'gaze'
p6376
(iDictEntry
dict_entry
p6377
(dp6378
g5
L200790L
sg6
I1
sbsS'treat'
p6379
(iDictEntry
dict_entry
p6380
(dp6381
g5
L500677L
sg6
I41
sbsS'electr'
p6382
(iDictEntry
dict_entry
p6383
(dp6384
g5
L148195L
sg6
I28
sbsS'feather'
p6385
(iDictEntry
dict_entry
p6386
(dp6387
g5
L171139L
sg6
I1
sbsS'immedi'
p6388
(iDictEntry
dict_entry
p6389
(dp6390
g5
L221275L
sg6
I1
sbsS'ballast'
p6391
(iDictEntry
dict_entry
p6392
(dp6393
g5
L43292L
sg6
I3
sbsS'presenc'
p6394
(iDictEntry
dict_entry
p6395
(dp6396
g5
L357580L
sg6
I5
sbsS'bulk'
p6397
(iDictEntry
dict_entry
p6398
(dp6399
g5
L59157L
sg6
I2
sbsS'PSI'
p6400
(iDictEntry
dict_entry
p6401
(dp6402
g5
L378617L
sg6
I1
sbsS'togeth'
p6403
(iDictEntry
dict_entry
p6404
(dp6405
g5
L497382L
sg6
I8
sbsS'present'
p6406
(iDictEntry
dict_entry
p6407
(dp6408
g5
L357851L
sg6
I42
sbsS'multi'
p6409
(iDictEntry
dict_entry
p6410
(dp6411
g5
L300842L
sg6
I6
sbsS'novel'
p6412
(iDictEntry
dict_entry
p6413
(dp6414
g5
L308143L
sg6
I7
sbsS'align'
p6415
(iDictEntry
dict_entry
p6416
(dp6417
g5
L14693L
sg6
I1
sbsS'defin'
p6418
(iDictEntry
dict_entry
p6419
(dp6420
g5
L114627L
sg6
I13
sbsS'observ'
p6421
(iDictEntry
dict_entry
p6422
(dp6423
g5
L311761L
sg6
I1
sbsS'layer'
p6424
(iDictEntry
dict_entry
p6425
(dp6426
g5
L248020L
sg6
I9
sbsS'purchas'
p6427
(iDictEntry
dict_entry
p6428
(dp6429
g5
L380296L
sg6
I1
sbsS'engag'
p6430
(iDictEntry
dict_entry
p6431
(dp6432
g5
L157381L
sg6
I2
sbsS'site'
p6433
(iDictEntry
dict_entry
p6434
(dp6435
g5
L436149L
sg6
I4
sbsS'substanti'
p6436
(iDictEntry
dict_entry
p6437
(dp6438
g5
L461364L
sg6
I12
sbsS'foreign'
p6439
(iDictEntry
dict_entry
p6440
(dp6441
g5
L190708L
sg6
I1
sbsS'situ'
p6442
(iDictEntry
dict_entry
p6443
(dp6444
g5
L436364L
sg6
I3
sbsS'bioactiv'
p6445
(iDictEntry
dict_entry
p6446
(dp6447
g5
L48320L
sg6
I1
sbsS'mutat'
p6448
(iDictEntry
dict_entry
p6449
(dp6450
g5
L302072L
sg6
I2
sbsS'headlight'
p6451
(iDictEntry
dict_entry
p6452
(dp6453
g5
L210356L
sg6
I1
sbsS'cross'
p6454
(iDictEntry
dict_entry
p6455
(dp6456
g5
L109547L
sg6
I2
sbsS'deodoris'
p6457
(iDictEntry
dict_entry
p6458
(dp6459
g5
L117584L
sg6
I2
sbsS'member'
p6460
(iDictEntry
dict_entry
p6461
(dp6462
g5
L278470L
sg6
I11
sbsS'aqueou'
p6463
(iDictEntry
dict_entry
p6464
(dp6465
g5
L31844L
sg6
I10
sbsS'frontal'
p6466
(iDictEntry
dict_entry
p6467
(dp6468
g5
L196382L
sg6
I1
sbsS'inch'
p6469
(iDictEntry
dict_entry
p6470
(dp6471
g5
L223701L
sg6
I1
sbsS'acet'
p6472
(iDictEntry
dict_entry
p6473
(dp6474
g5
L4913L
sg6
I1
sbsS'ball'
p6475
(iDictEntry
dict_entry
p6476
(dp6477
g5
L43185L
sg6
I2
sbsS'slave'
p6478
(iDictEntry
dict_entry
p6479
(dp6480
g5
L437458L
sg6
I1
sbsS'absorb'
p6481
(iDictEntry
dict_entry
p6482
(dp6483
g5
L2804L
sg6
I5
sbsS'drink'
p6484
(iDictEntry
dict_entry
p6485
(dp6486
g5
L142034L
sg6
I2
sbsS'upon'
p6487
(iDictEntry
dict_entry
p6488
(dp6489
g5
L514579L
sg6
I2
sbsS'effect'
p6490
(iDictEntry
dict_entry
p6491
(dp6492
g5
L145213L
sg6
I18
sbsS'ion'
p6493
(iDictEntry
dict_entry
p6494
(dp6495
g5
L242470L
sg6
I8
sbsS'silvicultur'
p6496
(iDictEntry
dict_entry
p6497
(dp6498
g5
L434790L
sg6
I1
sbsS'collar'
p6499
(iDictEntry
dict_entry
p6500
(dp6501
g5
L79358L
sg6
I2
sbsS'expand'
p6502
(iDictEntry
dict_entry
p6503
(dp6504
g5
L166543L
sg6
I3
sbsS'exceedingli'
p6505
(iDictEntry
dict_entry
p6506
(dp6507
g5
L164437L
sg6
I1
sbsS'gutter'
p6508
(iDictEntry
dict_entry
p6509
(dp6510
g5
L208429L
sg6
I1
sbsS'center'
p6511
(iDictEntry
dict_entry
p6512
(dp6513
g5
L66652L
sg6
I2
sbsS'neural'
p6514
(iDictEntry
dict_entry
p6515
(dp6516
g5
L304658L
sg6
I2
sbsS'well'
p6517
(iDictEntry
dict_entry
p6518
(dp6519
g5
L545676L
sg6
I12
sbsS'rainwat'
p6520
(iDictEntry
dict_entry
p6521
(dp6522
g5
L385222L
sg6
I1
sbsS'permeabl'
p6523
(iDictEntry
dict_entry
p6524
(dp6525
g5
L338701L
sg6
I3
sbsS'exampl'
p6526
(iDictEntry
dict_entry
p6527
(dp6528
g5
L163894L
sg6
I7
sbsS'command'
p6529
(iDictEntry
dict_entry
p6530
(dp6531
g5
L82718L
sg6
I1
sbsS'polym'
p6532
(iDictEntry
dict_entry
p6533
(dp6534
g5
L347091L
sg6
I9
sbsS'position'
p6535
(iDictEntry
dict_entry
p6536
(dp6537
g5
L352695L
sg6
I1
sbsS'usual'
p6538
(iDictEntry
dict_entry
p6539
(dp6540
g5
L521716L
sg6
I3
sbsS'distanc'
p6541
(iDictEntry
dict_entry
p6542
(dp6543
g5
L137535L
sg6
I3
sbsS'paus'
p6544
(iDictEntry
dict_entry
p6545
(dp6546
g5
L336534L
sg6
I1
sbsS'obtain'
p6547
(iDictEntry
dict_entry
p6548
(dp6549
g5
L311818L
sg6
I10
sbsS'dose'
p6550
(iDictEntry
dict_entry
p6551
(dp6552
g5
L139944L
sg6
I2
sbsS'fibril'
p6553
(iDictEntry
dict_entry
p6554
(dp6555
g5
L173665L
sg6
I1
sbsS'abat'
p6556
(iDictEntry
dict_entry
p6557
(dp6558
g5
L2311L
sg6
I1
sbsS'methan'
p6559
(iDictEntry
dict_entry
p6560
(dp6561
g5
L281882L
sg6
I1
sbsS'simultan'
p6562
(iDictEntry
dict_entry
p6563
(dp6564
g5
L435338L
sg6
I6
sbsS'keton'
p6565
(iDictEntry
dict_entry
p6566
(dp6567
g5
L245453L
sg6
I1
sbsS'sulphat'
p6568
(iDictEntry
dict_entry
p6569
(dp6570
g5
L464112L
sg6
I1
sbsS'web'
p6571
(iDictEntry
dict_entry
p6572
(dp6573
g5
L545280L
sg6
I1
sbsS'field'
p6574
(iDictEntry
dict_entry
p6575
(dp6576
g5
L173741L
sg6
I7
sbsS'lake'
p6577
(iDictEntry
dict_entry
p6578
(dp6579
g5
L246790L
sg6
I1
sbsS'add'
p6580
(iDictEntry
dict_entry
p6581
(dp6582
g5
L7687L
sg6
I1
sbsS'other'
p6583
(iDictEntry
dict_entry
p6584
(dp6585
g5
L322953L
sg6
I1
sbsS'stratum'
p6586
(iDictEntry
dict_entry
p6587
(dp6588
g5
L457403L
sg6
I1
sbsS'match'
p6589
(iDictEntry
dict_entry
p6590
(dp6591
g5
L268599L
sg6
I4
sbsS'sonic'
p6592
(iDictEntry
dict_entry
p6593
(dp6594
g5
L447510L
sg6
I1
sbsS'interlac'
p6595
(iDictEntry
dict_entry
p6596
(dp6597
g5
L237634L
sg6
I1
sbsS'piec'
p6598
(iDictEntry
dict_entry
p6599
(dp6600
g5
L341601L
sg6
I2
sbsS'realiz'
p6601
(iDictEntry
dict_entry
p6602
(dp6603
g5
L388406L
sg6
I2
sbsS'five'
p6604
(iDictEntry
dict_entry
p6605
(dp6606
g5
L182307L
sg6
I1
sbsS'press'
p6607
(iDictEntry
dict_entry
p6608
(dp6609
g5
L360442L
sg6
I6
sbsS'name'
p6610
(iDictEntry
dict_entry
p6611
(dp6612
g5
L302335L
sg6
I1
sbsS'pretreat'
p6613
(iDictEntry
dict_entry
p6614
(dp6615
g5
L362289L
sg6
I4
sbsS'like'
p6616
(iDictEntry
dict_entry
p6617
(dp6618
g5
L254006L
sg6
I16
sbsS'success'
p6619
(iDictEntry
dict_entry
p6620
(dp6621
g5
L462521L
sg6
I3
sbsS'resin'
p6622
(iDictEntry
dict_entry
p6623
(dp6624
g5
L404448L
sg6
I5
sbsS'poros'
p6625
(iDictEntry
dict_entry
p6626
(dp6627
g5
L348666L
sg6
I1
sbsS'vortex'
p6628
(iDictEntry
dict_entry
p6629
(dp6630
g5
L529882L
sg6
I1
sbsS'necessari'
p6631
(iDictEntry
dict_entry
p6632
(dp6633
g5
L303815L
sg6
I2
sbsS'porou'
p6634
(iDictEntry
dict_entry
p6635
(dp6636
g5
L348723L
sg6
I8
sbsS'soft'
p6637
(iDictEntry
dict_entry
p6638
(dp6639
g5
L443969L
sg6
I2
sbsS'corros'
p6640
(iDictEntry
dict_entry
p6641
(dp6642
g5
L107632L
sg6
I1
sbsS'therein'
p6643
(iDictEntry
dict_entry
p6644
(dp6645
g5
L490433L
sg6
I4
sbsS'shed'
p6646
(iDictEntry
dict_entry
p6647
(dp6648
g5
L431951L
sg6
I1
sbsS'propel'
p6649
(iDictEntry
dict_entry
p6650
(dp6651
g5
L372350L
sg6
I1
sbsS'captur'
p6652
(iDictEntry
dict_entry
p6653
(dp6654
g5
L61753L
sg6
I5
sbsS'vessel'
p6655
(iDictEntry
dict_entry
p6656
(dp6657
g5
L526000L
sg6
I13
sbsS'growth'
p6658
(iDictEntry
dict_entry
p6659
(dp6660
g5
L207848L
sg6
I7
sbsS'warmer'
p6661
(iDictEntry
dict_entry
p6662
(dp6663
g5
L530546L
sg6
I1
sbsS'convey'
p6664
(iDictEntry
dict_entry
p6665
(dp6666
g5
L106228L
sg6
I2
sbsS'flush'
p6667
(iDictEntry
dict_entry
p6668
(dp6669
g5
L187886L
sg6
I1
sbsS'proper'
p6670
(iDictEntry
dict_entry
p6671
(dp6672
g5
L372407L
sg6
I1
sbsS'transport'
p6673
(iDictEntry
dict_entry
p6674
(dp6675
g5
L500215L
sg6
I3
sbsS'lead'
p6676
(iDictEntry
dict_entry
p6677
(dp6678
g5
L248614L
sg6
I1
sbsS'leak'
p6679
(iDictEntry
dict_entry
p6680
(dp6681
g5
L248728L
sg6
I1
sbsS'avoid'
p6682
(iDictEntry
dict_entry
p6683
(dp6684
g5
L39912L
sg6
I1
sbsS'condens'
p6685
(iDictEntry
dict_entry
p6686
(dp6687
g5
L93131L
sg6
I4
sbsS'miner'
p6688
(iDictEntry
dict_entry
p6689
(dp6690
g5
L292778L
sg6
I5
sbsS'slide'
p6691
(iDictEntry
dict_entry
p6692
(dp6693
g5
L437755L
sg6
I1
sbsS'overlap'
p6694
(iDictEntry
dict_entry
p6695
(dp6696
g5
L326279L
sg6
I1
sbsS'estim'
p6697
(iDictEntry
dict_entry
p6698
(dp6699
g5
L162783L
sg6
I1
sbsS'leav'
p6700
(iDictEntry
dict_entry
p6701
(dp6702
g5
L251601L
sg6
I5
sbsS'settl'
p6703
(iDictEntry
dict_entry
p6704
(dp6705
g5
L427212L
sg6
I3
sbsS'sorption'
p6706
(iDictEntry
dict_entry
p6707
(dp6708
g5
L447790L
sg6
I2
sbsS'leader'
p6709
(iDictEntry
dict_entry
p6710
(dp6711
g5
L248671L
sg6
I1
sbsS'mode'
p6712
(iDictEntry
dict_entry
p6713
(dp6714
g5
L296589L
sg6
I1
sbsS'hinder'
p6715
(iDictEntry
dict_entry
p6716
(dp6717
g5
L214155L
sg6
I1
sbsS'electrolysi'
p6718
(iDictEntry
dict_entry
p6719
(dp6720
g5
L149939L
sg6
I3
sbsS'hose'
p6721
(iDictEntry
dict_entry
p6722
(dp6723
g5
L215643L
sg6
I1
sbsS'throttl'
p6724
(iDictEntry
dict_entry
p6725
(dp6726
g5
L495057L
sg6
I3
sbsS'permangan'
p6727
(iDictEntry
dict_entry
p6728
(dp6729
g5
L338644L
sg6
I1
sbsS'slight'
p6730
(iDictEntry
dict_entry
p6731
(dp6732
g5
L437818L
sg6
I1
sbsS'excav'
p6733
(iDictEntry
dict_entry
p6734
(dp6735
g5
L164268L
sg6
I2
sbsS'usag'
p6736
(iDictEntry
dict_entry
p6737
(dp6738
g5
L515861L
sg6
I2
sbsS'carbocycl'
p6739
(iDictEntry
dict_entry
p6740
(dp6741
g5
L62019L
sg6
I1
sbsS'although'
p6742
(iDictEntry
dict_entry
p6743
(dp6744
g5
L19051L
sg6
I1
sbsS'panel'
p6745
(iDictEntry
dict_entry
p6746
(dp6747
g5
L329281L
sg6
I2
sbsS'rare'
p6748
(iDictEntry
dict_entry
p6749
(dp6750
g5
L385862L
sg6
I1
sbsS'socket'
p6751
(iDictEntry
dict_entry
p6752
(dp6753
g5
L443743L
sg6
I1
sbsS'VOC'
p6754
(iDictEntry
dict_entry
p6755
(dp6756
g5
Nsg6
NsbsS'column'
p6757
(iDictEntry
dict_entry
p6758
(dp6759
g5
L80952L
sg6
I5
sbsS'carrier'
p6760
(iDictEntry
dict_entry
p6761
(dp6762
g5
L63808L
sg6
I15
sbsS'discard'
p6763
(iDictEntry
dict_entry
p6764
(dp6765
g5
L130360L
sg6
I2
sbsS'Two'
p6766
(iDictEntry
dict_entry
p6767
(dp6768
g5
Nsg6
NsbsS'automat'
p6769
(iDictEntry
dict_entry
p6770
(dp6771
g5
L39425L
sg6
I4
sbsS'outward'
p6772
(iDictEntry
dict_entry
p6773
(dp6774
g5
L325900L
sg6
I2
sbsS'brush'
p6775
(iDictEntry
dict_entry
p6776
(dp6777
g5
L56776L
sg6
I1
sbsS'mere'
p6778
(iDictEntry
dict_entry
p6779
(dp6780
g5
L280482L
sg6
I1
sbsS'pictur'
p6781
(iDictEntry
dict_entry
p6782
(dp6783
g5
L341542L
sg6
I1
sbsS'transfer'
p6784
(iDictEntry
dict_entry
p6785
(dp6786
g5
L499507L
sg6
I5
sbsS'pervapor'
p6787
(iDictEntry
dict_entry
p6788
(dp6789
g5
L339460L
sg6
I1
sbsS'husk'
p6790
(iDictEntry
dict_entry
p6791
(dp6792
g5
L217539L
sg6
I1
sbsS'inner'
p6793
(iDictEntry
dict_entry
p6794
(dp6795
g5
L233419L
sg6
I5
sbsS'function'
p6796
(iDictEntry
dict_entry
p6797
(dp6798
g5
L197068L
sg6
I6
sbsS'unexpect'
p6799
(iDictEntry
dict_entry
p6800
(dp6801
g5
L512639L
sg6
I1
sbsS'experienc'
p6802
(iDictEntry
dict_entry
p6803
(dp6804
g5
L166922L
sg6
I1
sbsS'neutral'
p6805
(iDictEntry
dict_entry
p6806
(dp6807
g5
L304765L
sg6
I1
sbsS'dosimet'
p6808
(iDictEntry
dict_entry
p6809
(dp6810
g5
L140051L
sg6
I1
sbsS'overflow'
p6811
(iDictEntry
dict_entry
p6812
(dp6813
g5
L326121L
sg6
I3
sbsS'highest'
p6814
(iDictEntry
dict_entry
p6815
(dp6816
g5
L213781L
sg6
I1
sbsS'count'
p6817
(iDictEntry
dict_entry
p6818
(dp6819
g5
L107853L
sg6
I1
sbsS'made'
p6820
(iDictEntry
dict_entry
p6821
(dp6822
g5
L263225L
sg6
I14
sbsS'displac'
p6823
(iDictEntry
dict_entry
p6824
(dp6825
g5
L135197L
sg6
I4
sbsS'veget'
p6826
(iDictEntry
dict_entry
p6827
(dp6828
g5
L524934L
sg6
I2
sbsS'smooth'
p6829
(iDictEntry
dict_entry
p6830
(dp6831
g5
L443449L
sg6
I1
sbsS'record'
p6832
(iDictEntry
dict_entry
p6833
(dp6834
g5
L391459L
sg6
I12
sbsS'limit'
p6835
(iDictEntry
dict_entry
p6836
(dp6837
g5
L255214L
sg6
I4
sbsS'otherwis'
p6838
(iDictEntry
dict_entry
p6839
(dp6840
g5
L323010L
sg6
I15
sbsS'problem'
p6841
(iDictEntry
dict_entry
p6842
(dp6843
g5
L364030L
sg6
I1
sbsS'strategi'
p6844
(iDictEntry
dict_entry
p6845
(dp6846
g5
L457346L
sg6
I1
sbsS'display'
p6847
(iDictEntry
dict_entry
p6848
(dp6849
g5
L135405L
sg6
I11
sbsS'immobil'
p6850
(iDictEntry
dict_entry
p6851
(dp6852
g5
L221433L
sg6
I4
sbsS'evalu'
p6853
(iDictEntry
dict_entry
p6854
(dp6855
g5
L163118L
sg6
I1
sbsS'crankcas'
p6856
(iDictEntry
dict_entry
p6857
(dp6858
g5
L108985L
sg6
I1
sbsS'circul'
p6859
(iDictEntry
dict_entry
p6860
(dp6861
g5
L73551L
sg6
I4
sbsS'forestri'
p6862
(iDictEntry
dict_entry
p6863
(dp6864
g5
L190822L
sg6
I1
sbsS'DAF'
p6865
(iDictEntry
dict_entry
p6866
(dp6867
g5
L111550L
sg6
I2
sbsS'dissolut'
p6868
(iDictEntry
dict_entry
p6869
(dp6870
g5
L136688L
sg6
I1
sbsS'percent'
p6871
(iDictEntry
dict_entry
p6872
(dp6873
g5
L337180L
sg6
I2
sbsS'detail'
p6874
(iDictEntry
dict_entry
p6875
(dp6876
g5
L120558L
sg6
I1
sbsS'virtual'
p6877
(iDictEntry
dict_entry
p6878
(dp6879
g5
L528316L
sg6
I4
sbsS'book'
p6880
(iDictEntry
dict_entry
p6881
(dp6882
g5
L54526L
sg6
I1
sbsS'varieti'
p6883
(iDictEntry
dict_entry
p6884
(dp6885
g5
L524344L
sg6
I3
sbsS'bladder'
p6886
(iDictEntry
dict_entry
p6887
(dp6888
g5
L51906L
sg6
I1
sbsS'preform'
p6889
(iDictEntry
dict_entry
p6890
(dp6891
g5
L356977L
sg6
I1
sbsS'nutrient'
p6892
(iDictEntry
dict_entry
p6893
(dp6894
g5
L310675L
sg6
I4
sbsS'nitrobacteria'
p6895
(iDictEntry
dict_entry
p6896
(dp6897
g5
L306073L
sg6
I1
sbsS'tropsch'
p6898
(iDictEntry
dict_entry
p6899
(dp6900
g5
L508669L
sg6
I1
sbsS'droplet'
p6901
(iDictEntry
dict_entry
p6902
(dp6903
g5
L142887L
sg6
I6
sbsS'perpendicularli'
p6904
(iDictEntry
dict_entry
p6905
(dp6906
g5
L339235L
sg6
I1
sbsS'peptid'
p6907
(iDictEntry
dict_entry
p6908
(dp6909
g5
L336890L
sg6
I1
sbsS'rule'
p6910
(iDictEntry
dict_entry
p6911
(dp6912
g5
L411270L
sg6
I1
sbsS'portion'
p6913
(iDictEntry
dict_entry
p6914
(dp6915
g5
L350114L
sg6
I27
sbsS'emerg'
p6916
(iDictEntry
dict_entry
p6917
(dp6918
g5
L153828L
sg6
I1
sbsS'auxiliari'
p6919
(iDictEntry
dict_entry
p6920
(dp6921
g5
L39638L
sg6
I2
sbsS'herbicid'
p6922
(iDictEntry
dict_entry
p6923
(dp6924
g5
L212171L
sg6
I2
sbsS'silica'
p6925
(iDictEntry
dict_entry
p6926
(dp6927
g5
L434249L
sg6
I4
sbsS'phosphat'
p6928
(iDictEntry
dict_entry
p6929
(dp6930
g5
L340667L
sg6
I2
sbsS'buoy'
p6931
(iDictEntry
dict_entry
p6932
(dp6933
g5
L59321L
sg6
I1
sbs.I221
.